0000000000400080 <.text>:
  400080:	ba 1a 00 00 00       	mov    $0x1a,%edx
  400085:	48 be 84 74 40 00 00 	movabs $0x407484,%rsi
  40008c:	00 00 00 
  40008f:	bf 01 00 00 00       	mov    $0x1,%edi
  400094:	b8 01 00 00 00       	mov    $0x1,%eax
  400099:	0f 05                	syscall 
  40009b:	b8 00 00 00 00       	mov    $0x0,%eax
  4000a0:	bf 02 00 00 00       	mov    $0x2,%edi
  4000a5:	48 be f4 74 40 00 00 	movabs $0x4074f4,%rsi
  4000ac:	00 00 00 
  4000af:	ba 64 00 00 00       	mov    $0x64,%edx
  4000b4:	0f 05                	syscall 
  4000b6:	4d 31 ff             	xor    %r15,%r15
  4000b9:	48 bf f4 74 40 00 00 	movabs $0x4074f4,%rdi
  4000c0:	00 00 00 
  4000c3:	e8 13 3e 00 00       	callq  0x403edb
  4000c8:	49 83 ff 40          	cmp    $0x40,%r15
  4000cc:	75 42                	jne    0x400110
  4000ce:	b8 02 00 00 00       	mov    $0x2,%eax
  4000d3:	48 bf aa 74 40 00 00 	movabs $0x4074aa,%rdi
  4000da:	00 00 00 
  4000dd:	be 00 00 00 00       	mov    $0x0,%esi
  4000e2:	ba 01 00 00 00       	mov    $0x1,%edx
  4000e7:	0f 05                	syscall 
  4000e9:	48 89 c7             	mov    %rax,%rdi
  4000ec:	48 be b3 74 40 00 00 	movabs $0x4074b3,%rsi
  4000f3:	00 00 00 
  4000f6:	b8 00 00 00 00       	mov    $0x0,%eax
  4000fb:	ba 40 00 00 00       	mov    $0x40,%edx
  400100:	0f 05                	syscall 
  400102:	b8 01 00 00 00       	mov    $0x1,%eax
  400107:	bf 01 00 00 00       	mov    $0x1,%edi
  40010c:	0f 05                	syscall 
  40010e:	eb 1b                	jmp    0x40012b
  400110:	ba 0c 00 00 00       	mov    $0xc,%edx
  400115:	48 be 9e 74 40 00 00 	movabs $0x40749e,%rsi
  40011c:	00 00 00 
  40011f:	bf 01 00 00 00       	mov    $0x1,%edi
  400124:	b8 01 00 00 00       	mov    $0x1,%eax
  400129:	0f 05                	syscall 
  40012b:	b8 01 00 00 00       	mov    $0x1,%eax
  400130:	cd 80                	int    $0x80
  400132:	c3                   	retq   
  400133:	90                   	nop
  400134:	90                   	nop
  400135:	90                   	nop
  400136:	90                   	nop
  400137:	90                   	nop
  400138:	90                   	nop
  400139:	90                   	nop
  40013a:	90                   	nop
  40013b:	90                   	nop
  40013c:	90                   	nop
  40013d:	90                   	nop
  40013e:	90                   	nop
  40013f:	90                   	nop
  400140:	90                   	nop
  400141:	90                   	nop
  400142:	90                   	nop
  400143:	90                   	nop
  400144:	90                   	nop
  400145:	90                   	nop
  400146:	90                   	nop
  400147:	90                   	nop
  400148:	90                   	nop
  400149:	90                   	nop
  40014a:	90                   	nop
  40014b:	90                   	nop
  40014c:	90                   	nop
  40014d:	90                   	nop
  40014e:	90                   	nop
  40014f:	90                   	nop
  400150:	90                   	nop
  400151:	90                   	nop
  400152:	90                   	nop
  400153:	90                   	nop
  400154:	90                   	nop
  400155:	90                   	nop
  400156:	90                   	nop
  400157:	90                   	nop
  400158:	90                   	nop
  400159:	90                   	nop
  40015a:	90                   	nop
  40015b:	90                   	nop
  40015c:	90                   	nop
  40015d:	90                   	nop
  40015e:	90                   	nop
  40015f:	90                   	nop
  400160:	90                   	nop
  400161:	90                   	nop
  400162:	90                   	nop
  400163:	90                   	nop
  400164:	90                   	nop
  400165:	90                   	nop
  400166:	90                   	nop
  400167:	90                   	nop
  400168:	90                   	nop
  400169:	90                   	nop
  40016a:	90                   	nop
  40016b:	90                   	nop
  40016c:	90                   	nop
  40016d:	90                   	nop
  40016e:	90                   	nop
  40016f:	90                   	nop
  400170:	90                   	nop
  400171:	90                   	nop
  400172:	90                   	nop
  400173:	90                   	nop
  400174:	90                   	nop
  400175:	90                   	nop
  400176:	90                   	nop
  400177:	90                   	nop
  400178:	90                   	nop
  400179:	90                   	nop
  40017a:	90                   	nop
  40017b:	90                   	nop
  40017c:	90                   	nop
  40017d:	90                   	nop
  40017e:	90                   	nop
  40017f:	90                   	nop
  400180:	90                   	nop
  400181:	90                   	nop
  400182:	90                   	nop
  400183:	90                   	nop
  400184:	90                   	nop
  400185:	90                   	nop
  400186:	90                   	nop
  400187:	90                   	nop
  400188:	90                   	nop
  400189:	90                   	nop
  40018a:	90                   	nop
  40018b:	90                   	nop
  40018c:	90                   	nop
  40018d:	90                   	nop
  40018e:	90                   	nop
  40018f:	90                   	nop
  400190:	90                   	nop
  400191:	90                   	nop
  400192:	90                   	nop
  400193:	90                   	nop
  400194:	90                   	nop
  400195:	90                   	nop
  400196:	90                   	nop
  400197:	90                   	nop
  400198:	90                   	nop
  400199:	90                   	nop
  40019a:	90                   	nop
  40019b:	90                   	nop
  40019c:	90                   	nop
  40019d:	90                   	nop
  40019e:	90                   	nop
  40019f:	90                   	nop
  4001a0:	90                   	nop
  4001a1:	90                   	nop
  4001a2:	90                   	nop
  4001a3:	90                   	nop
  4001a4:	90                   	nop
  4001a5:	90                   	nop
  4001a6:	90                   	nop
  4001a7:	90                   	nop
  4001a8:	90                   	nop
  4001a9:	90                   	nop
  4001aa:	90                   	nop
  4001ab:	90                   	nop
  4001ac:	90                   	nop
  4001ad:	90                   	nop
  4001ae:	90                   	nop
  4001af:	90                   	nop
  4001b0:	90                   	nop
  4001b1:	90                   	nop
  4001b2:	90                   	nop
  4001b3:	90                   	nop
  4001b4:	90                   	nop
  4001b5:	90                   	nop
  4001b6:	90                   	nop
  4001b7:	90                   	nop
  4001b8:	90                   	nop
  4001b9:	90                   	nop
  4001ba:	90                   	nop
  4001bb:	90                   	nop
  4001bc:	90                   	nop
  4001bd:	90                   	nop
  4001be:	90                   	nop
  4001bf:	90                   	nop
  4001c0:	90                   	nop
  4001c1:	90                   	nop
  4001c2:	90                   	nop
  4001c3:	90                   	nop
  4001c4:	90                   	nop
  4001c5:	90                   	nop
  4001c6:	90                   	nop
  4001c7:	90                   	nop
  4001c8:	90                   	nop
  4001c9:	90                   	nop
  4001ca:	90                   	nop
  4001cb:	90                   	nop
  4001cc:	90                   	nop
  4001cd:	90                   	nop
  4001ce:	90                   	nop
  4001cf:	90                   	nop
  4001d0:	90                   	nop
  4001d1:	90                   	nop
  4001d2:	90                   	nop
  4001d3:	90                   	nop
  4001d4:	90                   	nop
  4001d5:	90                   	nop
  4001d6:	90                   	nop
  4001d7:	90                   	nop
  4001d8:	90                   	nop
  4001d9:	90                   	nop
  4001da:	90                   	nop
  4001db:	90                   	nop
  4001dc:	90                   	nop
  4001dd:	90                   	nop
  4001de:	90                   	nop
  4001df:	90                   	nop
  4001e0:	90                   	nop
  4001e1:	90                   	nop
  4001e2:	90                   	nop
  4001e3:	90                   	nop
  4001e4:	90                   	nop
  4001e5:	90                   	nop
  4001e6:	90                   	nop
  4001e7:	90                   	nop
  4001e8:	90                   	nop
  4001e9:	90                   	nop
  4001ea:	90                   	nop
  4001eb:	90                   	nop
  4001ec:	90                   	nop
  4001ed:	90                   	nop
  4001ee:	90                   	nop
  4001ef:	90                   	nop
  4001f0:	90                   	nop
  4001f1:	90                   	nop
  4001f2:	90                   	nop
  4001f3:	90                   	nop
  4001f4:	90                   	nop
  4001f5:	90                   	nop
  4001f6:	90                   	nop
  4001f7:	90                   	nop
  4001f8:	90                   	nop
  4001f9:	90                   	nop
  4001fa:	90                   	nop
  4001fb:	90                   	nop
  4001fc:	90                   	nop
  4001fd:	90                   	nop
  4001fe:	90                   	nop
  4001ff:	c3                   	retq   
  400200:	90                   	nop
  400201:	90                   	nop
  400202:	90                   	nop
  400203:	90                   	nop
  400204:	90                   	nop
  400205:	90                   	nop
  400206:	90                   	nop
  400207:	90                   	nop
  400208:	90                   	nop
  400209:	90                   	nop
  40020a:	90                   	nop
  40020b:	90                   	nop
  40020c:	90                   	nop
  40020d:	90                   	nop
  40020e:	90                   	nop
  40020f:	90                   	nop
  400210:	90                   	nop
  400211:	90                   	nop
  400212:	90                   	nop
  400213:	90                   	nop
  400214:	90                   	nop
  400215:	90                   	nop
  400216:	90                   	nop
  400217:	90                   	nop
  400218:	90                   	nop
  400219:	90                   	nop
  40021a:	90                   	nop
  40021b:	90                   	nop
  40021c:	90                   	nop
  40021d:	90                   	nop
  40021e:	90                   	nop
  40021f:	90                   	nop
  400220:	90                   	nop
  400221:	90                   	nop
  400222:	90                   	nop
  400223:	90                   	nop
  400224:	90                   	nop
  400225:	90                   	nop
  400226:	90                   	nop
  400227:	90                   	nop
  400228:	90                   	nop
  400229:	90                   	nop
  40022a:	90                   	nop
  40022b:	90                   	nop
  40022c:	90                   	nop
  40022d:	90                   	nop
  40022e:	90                   	nop
  40022f:	90                   	nop
  400230:	90                   	nop
  400231:	90                   	nop
  400232:	90                   	nop
  400233:	90                   	nop
  400234:	90                   	nop
  400235:	90                   	nop
  400236:	90                   	nop
  400237:	90                   	nop
  400238:	90                   	nop
  400239:	90                   	nop
  40023a:	90                   	nop
  40023b:	90                   	nop
  40023c:	90                   	nop
  40023d:	90                   	nop
  40023e:	90                   	nop
  40023f:	90                   	nop
  400240:	90                   	nop
  400241:	90                   	nop
  400242:	90                   	nop
  400243:	90                   	nop
  400244:	90                   	nop
  400245:	90                   	nop
  400246:	90                   	nop
  400247:	90                   	nop
  400248:	90                   	nop
  400249:	90                   	nop
  40024a:	90                   	nop
  40024b:	90                   	nop
  40024c:	90                   	nop
  40024d:	90                   	nop
  40024e:	90                   	nop
  40024f:	90                   	nop
  400250:	90                   	nop
  400251:	90                   	nop
  400252:	90                   	nop
  400253:	90                   	nop
  400254:	90                   	nop
  400255:	90                   	nop
  400256:	90                   	nop
  400257:	90                   	nop
  400258:	90                   	nop
  400259:	90                   	nop
  40025a:	90                   	nop
  40025b:	90                   	nop
  40025c:	90                   	nop
  40025d:	90                   	nop
  40025e:	90                   	nop
  40025f:	90                   	nop
  400260:	90                   	nop
  400261:	90                   	nop
  400262:	90                   	nop
  400263:	90                   	nop
  400264:	90                   	nop
  400265:	90                   	nop
  400266:	90                   	nop
  400267:	90                   	nop
  400268:	90                   	nop
  400269:	90                   	nop
  40026a:	90                   	nop
  40026b:	90                   	nop
  40026c:	90                   	nop
  40026d:	90                   	nop
  40026e:	90                   	nop
  40026f:	90                   	nop
  400270:	90                   	nop
  400271:	90                   	nop
  400272:	90                   	nop
  400273:	90                   	nop
  400274:	90                   	nop
  400275:	90                   	nop
  400276:	90                   	nop
  400277:	90                   	nop
  400278:	90                   	nop
  400279:	90                   	nop
  40027a:	90                   	nop
  40027b:	90                   	nop
  40027c:	90                   	nop
  40027d:	90                   	nop
  40027e:	90                   	nop
  40027f:	90                   	nop
  400280:	90                   	nop
  400281:	90                   	nop
  400282:	90                   	nop
  400283:	90                   	nop
  400284:	90                   	nop
  400285:	90                   	nop
  400286:	90                   	nop
  400287:	90                   	nop
  400288:	90                   	nop
  400289:	90                   	nop
  40028a:	90                   	nop
  40028b:	90                   	nop
  40028c:	90                   	nop
  40028d:	90                   	nop
  40028e:	90                   	nop
  40028f:	90                   	nop
  400290:	90                   	nop
  400291:	90                   	nop
  400292:	90                   	nop
  400293:	90                   	nop
  400294:	90                   	nop
  400295:	90                   	nop
  400296:	90                   	nop
  400297:	90                   	nop
  400298:	90                   	nop
  400299:	90                   	nop
  40029a:	90                   	nop
  40029b:	90                   	nop
  40029c:	90                   	nop
  40029d:	90                   	nop
  40029e:	90                   	nop
  40029f:	90                   	nop
  4002a0:	90                   	nop
  4002a1:	90                   	nop
  4002a2:	90                   	nop
  4002a3:	90                   	nop
  4002a4:	90                   	nop
  4002a5:	90                   	nop
  4002a6:	90                   	nop
  4002a7:	90                   	nop
  4002a8:	90                   	nop
  4002a9:	90                   	nop
  4002aa:	90                   	nop
  4002ab:	90                   	nop
  4002ac:	90                   	nop
  4002ad:	90                   	nop
  4002ae:	90                   	nop
  4002af:	90                   	nop
  4002b0:	90                   	nop
  4002b1:	90                   	nop
  4002b2:	90                   	nop
  4002b3:	90                   	nop
  4002b4:	90                   	nop
  4002b5:	90                   	nop
  4002b6:	90                   	nop
  4002b7:	90                   	nop
  4002b8:	90                   	nop
  4002b9:	90                   	nop
  4002ba:	90                   	nop
  4002bb:	90                   	nop
  4002bc:	90                   	nop
  4002bd:	90                   	nop
  4002be:	90                   	nop
  4002bf:	90                   	nop
  4002c0:	90                   	nop
  4002c1:	90                   	nop
  4002c2:	90                   	nop
  4002c3:	90                   	nop
  4002c4:	90                   	nop
  4002c5:	90                   	nop
  4002c6:	90                   	nop
  4002c7:	90                   	nop
  4002c8:	90                   	nop
  4002c9:	90                   	nop
  4002ca:	90                   	nop
  4002cb:	90                   	nop
  4002cc:	c3                   	retq   
  4002cd:	90                   	nop
  4002ce:	90                   	nop
  4002cf:	90                   	nop
  4002d0:	90                   	nop
  4002d1:	90                   	nop
  4002d2:	90                   	nop
  4002d3:	90                   	nop
  4002d4:	90                   	nop
  4002d5:	90                   	nop
  4002d6:	90                   	nop
  4002d7:	90                   	nop
  4002d8:	90                   	nop
  4002d9:	90                   	nop
  4002da:	90                   	nop
  4002db:	90                   	nop
  4002dc:	90                   	nop
  4002dd:	90                   	nop
  4002de:	90                   	nop
  4002df:	90                   	nop
  4002e0:	90                   	nop
  4002e1:	90                   	nop
  4002e2:	90                   	nop
  4002e3:	90                   	nop
  4002e4:	90                   	nop
  4002e5:	90                   	nop
  4002e6:	90                   	nop
  4002e7:	90                   	nop
  4002e8:	90                   	nop
  4002e9:	90                   	nop
  4002ea:	90                   	nop
  4002eb:	90                   	nop
  4002ec:	90                   	nop
  4002ed:	90                   	nop
  4002ee:	90                   	nop
  4002ef:	90                   	nop
  4002f0:	90                   	nop
  4002f1:	90                   	nop
  4002f2:	90                   	nop
  4002f3:	90                   	nop
  4002f4:	90                   	nop
  4002f5:	90                   	nop
  4002f6:	90                   	nop
  4002f7:	90                   	nop
  4002f8:	90                   	nop
  4002f9:	90                   	nop
  4002fa:	90                   	nop
  4002fb:	90                   	nop
  4002fc:	90                   	nop
  4002fd:	90                   	nop
  4002fe:	90                   	nop
  4002ff:	90                   	nop
  400300:	90                   	nop
  400301:	90                   	nop
  400302:	90                   	nop
  400303:	90                   	nop
  400304:	90                   	nop
  400305:	90                   	nop
  400306:	90                   	nop
  400307:	90                   	nop
  400308:	90                   	nop
  400309:	90                   	nop
  40030a:	90                   	nop
  40030b:	90                   	nop
  40030c:	90                   	nop
  40030d:	90                   	nop
  40030e:	90                   	nop
  40030f:	90                   	nop
  400310:	90                   	nop
  400311:	90                   	nop
  400312:	90                   	nop
  400313:	90                   	nop
  400314:	90                   	nop
  400315:	90                   	nop
  400316:	90                   	nop
  400317:	90                   	nop
  400318:	90                   	nop
  400319:	90                   	nop
  40031a:	90                   	nop
  40031b:	90                   	nop
  40031c:	90                   	nop
  40031d:	90                   	nop
  40031e:	90                   	nop
  40031f:	90                   	nop
  400320:	90                   	nop
  400321:	90                   	nop
  400322:	90                   	nop
  400323:	90                   	nop
  400324:	90                   	nop
  400325:	90                   	nop
  400326:	90                   	nop
  400327:	90                   	nop
  400328:	90                   	nop
  400329:	90                   	nop
  40032a:	90                   	nop
  40032b:	90                   	nop
  40032c:	90                   	nop
  40032d:	90                   	nop
  40032e:	90                   	nop
  40032f:	90                   	nop
  400330:	90                   	nop
  400331:	90                   	nop
  400332:	90                   	nop
  400333:	90                   	nop
  400334:	90                   	nop
  400335:	90                   	nop
  400336:	90                   	nop
  400337:	90                   	nop
  400338:	90                   	nop
  400339:	90                   	nop
  40033a:	90                   	nop
  40033b:	90                   	nop
  40033c:	90                   	nop
  40033d:	90                   	nop
  40033e:	90                   	nop
  40033f:	90                   	nop
  400340:	90                   	nop
  400341:	90                   	nop
  400342:	90                   	nop
  400343:	90                   	nop
  400344:	90                   	nop
  400345:	90                   	nop
  400346:	90                   	nop
  400347:	90                   	nop
  400348:	90                   	nop
  400349:	90                   	nop
  40034a:	90                   	nop
  40034b:	90                   	nop
  40034c:	90                   	nop
  40034d:	90                   	nop
  40034e:	90                   	nop
  40034f:	90                   	nop
  400350:	90                   	nop
  400351:	90                   	nop
  400352:	90                   	nop
  400353:	90                   	nop
  400354:	90                   	nop
  400355:	90                   	nop
  400356:	90                   	nop
  400357:	90                   	nop
  400358:	90                   	nop
  400359:	90                   	nop
  40035a:	90                   	nop
  40035b:	90                   	nop
  40035c:	90                   	nop
  40035d:	90                   	nop
  40035e:	90                   	nop
  40035f:	90                   	nop
  400360:	90                   	nop
  400361:	90                   	nop
  400362:	90                   	nop
  400363:	90                   	nop
  400364:	90                   	nop
  400365:	90                   	nop
  400366:	90                   	nop
  400367:	90                   	nop
  400368:	90                   	nop
  400369:	90                   	nop
  40036a:	90                   	nop
  40036b:	90                   	nop
  40036c:	90                   	nop
  40036d:	90                   	nop
  40036e:	90                   	nop
  40036f:	90                   	nop
  400370:	90                   	nop
  400371:	90                   	nop
  400372:	90                   	nop
  400373:	90                   	nop
  400374:	90                   	nop
  400375:	90                   	nop
  400376:	90                   	nop
  400377:	90                   	nop
  400378:	90                   	nop
  400379:	90                   	nop
  40037a:	90                   	nop
  40037b:	90                   	nop
  40037c:	90                   	nop
  40037d:	90                   	nop
  40037e:	90                   	nop
  40037f:	90                   	nop
  400380:	90                   	nop
  400381:	90                   	nop
  400382:	90                   	nop
  400383:	90                   	nop
  400384:	90                   	nop
  400385:	90                   	nop
  400386:	90                   	nop
  400387:	90                   	nop
  400388:	90                   	nop
  400389:	90                   	nop
  40038a:	90                   	nop
  40038b:	90                   	nop
  40038c:	90                   	nop
  40038d:	90                   	nop
  40038e:	90                   	nop
  40038f:	90                   	nop
  400390:	90                   	nop
  400391:	90                   	nop
  400392:	90                   	nop
  400393:	90                   	nop
  400394:	90                   	nop
  400395:	90                   	nop
  400396:	90                   	nop
  400397:	90                   	nop
  400398:	90                   	nop
  400399:	c3                   	retq   
  40039a:	90                   	nop
  40039b:	90                   	nop
  40039c:	90                   	nop
  40039d:	90                   	nop
  40039e:	90                   	nop
  40039f:	90                   	nop
  4003a0:	90                   	nop
  4003a1:	90                   	nop
  4003a2:	90                   	nop
  4003a3:	90                   	nop
  4003a4:	90                   	nop
  4003a5:	90                   	nop
  4003a6:	90                   	nop
  4003a7:	90                   	nop
  4003a8:	90                   	nop
  4003a9:	90                   	nop
  4003aa:	90                   	nop
  4003ab:	90                   	nop
  4003ac:	90                   	nop
  4003ad:	90                   	nop
  4003ae:	90                   	nop
  4003af:	90                   	nop
  4003b0:	90                   	nop
  4003b1:	90                   	nop
  4003b2:	90                   	nop
  4003b3:	90                   	nop
  4003b4:	90                   	nop
  4003b5:	90                   	nop
  4003b6:	90                   	nop
  4003b7:	90                   	nop
  4003b8:	90                   	nop
  4003b9:	90                   	nop
  4003ba:	90                   	nop
  4003bb:	90                   	nop
  4003bc:	90                   	nop
  4003bd:	90                   	nop
  4003be:	90                   	nop
  4003bf:	90                   	nop
  4003c0:	90                   	nop
  4003c1:	90                   	nop
  4003c2:	90                   	nop
  4003c3:	90                   	nop
  4003c4:	90                   	nop
  4003c5:	90                   	nop
  4003c6:	90                   	nop
  4003c7:	90                   	nop
  4003c8:	90                   	nop
  4003c9:	90                   	nop
  4003ca:	90                   	nop
  4003cb:	90                   	nop
  4003cc:	90                   	nop
  4003cd:	90                   	nop
  4003ce:	90                   	nop
  4003cf:	90                   	nop
  4003d0:	90                   	nop
  4003d1:	90                   	nop
  4003d2:	90                   	nop
  4003d3:	90                   	nop
  4003d4:	90                   	nop
  4003d5:	90                   	nop
  4003d6:	90                   	nop
  4003d7:	90                   	nop
  4003d8:	90                   	nop
  4003d9:	90                   	nop
  4003da:	90                   	nop
  4003db:	90                   	nop
  4003dc:	90                   	nop
  4003dd:	90                   	nop
  4003de:	90                   	nop
  4003df:	90                   	nop
  4003e0:	90                   	nop
  4003e1:	90                   	nop
  4003e2:	90                   	nop
  4003e3:	90                   	nop
  4003e4:	90                   	nop
  4003e5:	90                   	nop
  4003e6:	90                   	nop
  4003e7:	90                   	nop
  4003e8:	90                   	nop
  4003e9:	90                   	nop
  4003ea:	90                   	nop
  4003eb:	90                   	nop
  4003ec:	90                   	nop
  4003ed:	90                   	nop
  4003ee:	90                   	nop
  4003ef:	90                   	nop
  4003f0:	90                   	nop
  4003f1:	90                   	nop
  4003f2:	90                   	nop
  4003f3:	90                   	nop
  4003f4:	90                   	nop
  4003f5:	90                   	nop
  4003f6:	90                   	nop
  4003f7:	90                   	nop
  4003f8:	90                   	nop
  4003f9:	90                   	nop
  4003fa:	90                   	nop
  4003fb:	90                   	nop
  4003fc:	90                   	nop
  4003fd:	90                   	nop
  4003fe:	90                   	nop
  4003ff:	90                   	nop
  400400:	90                   	nop
  400401:	90                   	nop
  400402:	90                   	nop
  400403:	90                   	nop
  400404:	90                   	nop
  400405:	90                   	nop
  400406:	90                   	nop
  400407:	90                   	nop
  400408:	90                   	nop
  400409:	90                   	nop
  40040a:	90                   	nop
  40040b:	90                   	nop
  40040c:	90                   	nop
  40040d:	90                   	nop
  40040e:	90                   	nop
  40040f:	90                   	nop
  400410:	90                   	nop
  400411:	90                   	nop
  400412:	90                   	nop
  400413:	90                   	nop
  400414:	90                   	nop
  400415:	90                   	nop
  400416:	90                   	nop
  400417:	90                   	nop
  400418:	90                   	nop
  400419:	90                   	nop
  40041a:	90                   	nop
  40041b:	90                   	nop
  40041c:	90                   	nop
  40041d:	90                   	nop
  40041e:	90                   	nop
  40041f:	90                   	nop
  400420:	90                   	nop
  400421:	90                   	nop
  400422:	90                   	nop
  400423:	90                   	nop
  400424:	90                   	nop
  400425:	90                   	nop
  400426:	90                   	nop
  400427:	90                   	nop
  400428:	90                   	nop
  400429:	90                   	nop
  40042a:	90                   	nop
  40042b:	90                   	nop
  40042c:	90                   	nop
  40042d:	90                   	nop
  40042e:	90                   	nop
  40042f:	90                   	nop
  400430:	90                   	nop
  400431:	90                   	nop
  400432:	90                   	nop
  400433:	90                   	nop
  400434:	90                   	nop
  400435:	90                   	nop
  400436:	90                   	nop
  400437:	90                   	nop
  400438:	90                   	nop
  400439:	90                   	nop
  40043a:	90                   	nop
  40043b:	90                   	nop
  40043c:	90                   	nop
  40043d:	90                   	nop
  40043e:	90                   	nop
  40043f:	90                   	nop
  400440:	90                   	nop
  400441:	90                   	nop
  400442:	90                   	nop
  400443:	90                   	nop
  400444:	90                   	nop
  400445:	90                   	nop
  400446:	90                   	nop
  400447:	90                   	nop
  400448:	90                   	nop
  400449:	90                   	nop
  40044a:	90                   	nop
  40044b:	90                   	nop
  40044c:	90                   	nop
  40044d:	90                   	nop
  40044e:	90                   	nop
  40044f:	90                   	nop
  400450:	90                   	nop
  400451:	90                   	nop
  400452:	90                   	nop
  400453:	90                   	nop
  400454:	90                   	nop
  400455:	90                   	nop
  400456:	90                   	nop
  400457:	90                   	nop
  400458:	90                   	nop
  400459:	90                   	nop
  40045a:	90                   	nop
  40045b:	90                   	nop
  40045c:	90                   	nop
  40045d:	90                   	nop
  40045e:	90                   	nop
  40045f:	90                   	nop
  400460:	90                   	nop
  400461:	90                   	nop
  400462:	90                   	nop
  400463:	90                   	nop
  400464:	90                   	nop
  400465:	90                   	nop
  400466:	c3                   	retq   
  400467:	90                   	nop
  400468:	90                   	nop
  400469:	90                   	nop
  40046a:	90                   	nop
  40046b:	90                   	nop
  40046c:	90                   	nop
  40046d:	90                   	nop
  40046e:	90                   	nop
  40046f:	90                   	nop
  400470:	90                   	nop
  400471:	90                   	nop
  400472:	90                   	nop
  400473:	90                   	nop
  400474:	90                   	nop
  400475:	90                   	nop
  400476:	90                   	nop
  400477:	90                   	nop
  400478:	90                   	nop
  400479:	90                   	nop
  40047a:	90                   	nop
  40047b:	90                   	nop
  40047c:	90                   	nop
  40047d:	90                   	nop
  40047e:	90                   	nop
  40047f:	90                   	nop
  400480:	90                   	nop
  400481:	90                   	nop
  400482:	90                   	nop
  400483:	90                   	nop
  400484:	90                   	nop
  400485:	90                   	nop
  400486:	90                   	nop
  400487:	90                   	nop
  400488:	90                   	nop
  400489:	90                   	nop
  40048a:	90                   	nop
  40048b:	90                   	nop
  40048c:	90                   	nop
  40048d:	90                   	nop
  40048e:	90                   	nop
  40048f:	90                   	nop
  400490:	90                   	nop
  400491:	90                   	nop
  400492:	90                   	nop
  400493:	90                   	nop
  400494:	90                   	nop
  400495:	90                   	nop
  400496:	90                   	nop
  400497:	90                   	nop
  400498:	90                   	nop
  400499:	90                   	nop
  40049a:	90                   	nop
  40049b:	90                   	nop
  40049c:	90                   	nop
  40049d:	90                   	nop
  40049e:	90                   	nop
  40049f:	90                   	nop
  4004a0:	90                   	nop
  4004a1:	90                   	nop
  4004a2:	90                   	nop
  4004a3:	90                   	nop
  4004a4:	90                   	nop
  4004a5:	90                   	nop
  4004a6:	90                   	nop
  4004a7:	90                   	nop
  4004a8:	90                   	nop
  4004a9:	90                   	nop
  4004aa:	90                   	nop
  4004ab:	90                   	nop
  4004ac:	90                   	nop
  4004ad:	90                   	nop
  4004ae:	90                   	nop
  4004af:	90                   	nop
  4004b0:	90                   	nop
  4004b1:	90                   	nop
  4004b2:	90                   	nop
  4004b3:	90                   	nop
  4004b4:	90                   	nop
  4004b5:	90                   	nop
  4004b6:	90                   	nop
  4004b7:	90                   	nop
  4004b8:	90                   	nop
  4004b9:	90                   	nop
  4004ba:	90                   	nop
  4004bb:	90                   	nop
  4004bc:	90                   	nop
  4004bd:	90                   	nop
  4004be:	90                   	nop
  4004bf:	90                   	nop
  4004c0:	90                   	nop
  4004c1:	90                   	nop
  4004c2:	90                   	nop
  4004c3:	90                   	nop
  4004c4:	90                   	nop
  4004c5:	90                   	nop
  4004c6:	90                   	nop
  4004c7:	90                   	nop
  4004c8:	90                   	nop
  4004c9:	90                   	nop
  4004ca:	90                   	nop
  4004cb:	90                   	nop
  4004cc:	90                   	nop
  4004cd:	90                   	nop
  4004ce:	90                   	nop
  4004cf:	90                   	nop
  4004d0:	90                   	nop
  4004d1:	90                   	nop
  4004d2:	90                   	nop
  4004d3:	90                   	nop
  4004d4:	90                   	nop
  4004d5:	90                   	nop
  4004d6:	90                   	nop
  4004d7:	90                   	nop
  4004d8:	90                   	nop
  4004d9:	90                   	nop
  4004da:	90                   	nop
  4004db:	90                   	nop
  4004dc:	90                   	nop
  4004dd:	90                   	nop
  4004de:	90                   	nop
  4004df:	90                   	nop
  4004e0:	90                   	nop
  4004e1:	90                   	nop
  4004e2:	90                   	nop
  4004e3:	90                   	nop
  4004e4:	90                   	nop
  4004e5:	90                   	nop
  4004e6:	90                   	nop
  4004e7:	90                   	nop
  4004e8:	90                   	nop
  4004e9:	90                   	nop
  4004ea:	90                   	nop
  4004eb:	90                   	nop
  4004ec:	90                   	nop
  4004ed:	90                   	nop
  4004ee:	90                   	nop
  4004ef:	90                   	nop
  4004f0:	90                   	nop
  4004f1:	90                   	nop
  4004f2:	90                   	nop
  4004f3:	90                   	nop
  4004f4:	90                   	nop
  4004f5:	90                   	nop
  4004f6:	90                   	nop
  4004f7:	90                   	nop
  4004f8:	90                   	nop
  4004f9:	90                   	nop
  4004fa:	90                   	nop
  4004fb:	90                   	nop
  4004fc:	90                   	nop
  4004fd:	90                   	nop
  4004fe:	90                   	nop
  4004ff:	90                   	nop
  400500:	90                   	nop
  400501:	90                   	nop
  400502:	90                   	nop
  400503:	90                   	nop
  400504:	90                   	nop
  400505:	90                   	nop
  400506:	90                   	nop
  400507:	90                   	nop
  400508:	90                   	nop
  400509:	90                   	nop
  40050a:	90                   	nop
  40050b:	90                   	nop
  40050c:	90                   	nop
  40050d:	90                   	nop
  40050e:	90                   	nop
  40050f:	90                   	nop
  400510:	90                   	nop
  400511:	90                   	nop
  400512:	90                   	nop
  400513:	90                   	nop
  400514:	90                   	nop
  400515:	90                   	nop
  400516:	90                   	nop
  400517:	90                   	nop
  400518:	90                   	nop
  400519:	90                   	nop
  40051a:	90                   	nop
  40051b:	90                   	nop
  40051c:	90                   	nop
  40051d:	90                   	nop
  40051e:	90                   	nop
  40051f:	90                   	nop
  400520:	90                   	nop
  400521:	90                   	nop
  400522:	90                   	nop
  400523:	90                   	nop
  400524:	90                   	nop
  400525:	90                   	nop
  400526:	90                   	nop
  400527:	90                   	nop
  400528:	90                   	nop
  400529:	90                   	nop
  40052a:	90                   	nop
  40052b:	90                   	nop
  40052c:	90                   	nop
  40052d:	90                   	nop
  40052e:	90                   	nop
  40052f:	90                   	nop
  400530:	90                   	nop
  400531:	90                   	nop
  400532:	90                   	nop
  400533:	c3                   	retq   
  400534:	90                   	nop
  400535:	90                   	nop
  400536:	90                   	nop
  400537:	90                   	nop
  400538:	90                   	nop
  400539:	90                   	nop
  40053a:	90                   	nop
  40053b:	90                   	nop
  40053c:	90                   	nop
  40053d:	90                   	nop
  40053e:	90                   	nop
  40053f:	90                   	nop
  400540:	90                   	nop
  400541:	90                   	nop
  400542:	90                   	nop
  400543:	90                   	nop
  400544:	90                   	nop
  400545:	90                   	nop
  400546:	90                   	nop
  400547:	90                   	nop
  400548:	90                   	nop
  400549:	90                   	nop
  40054a:	90                   	nop
  40054b:	90                   	nop
  40054c:	90                   	nop
  40054d:	90                   	nop
  40054e:	90                   	nop
  40054f:	90                   	nop
  400550:	90                   	nop
  400551:	90                   	nop
  400552:	90                   	nop
  400553:	90                   	nop
  400554:	90                   	nop
  400555:	90                   	nop
  400556:	90                   	nop
  400557:	90                   	nop
  400558:	90                   	nop
  400559:	90                   	nop
  40055a:	90                   	nop
  40055b:	90                   	nop
  40055c:	90                   	nop
  40055d:	90                   	nop
  40055e:	90                   	nop
  40055f:	90                   	nop
  400560:	90                   	nop
  400561:	90                   	nop
  400562:	90                   	nop
  400563:	90                   	nop
  400564:	90                   	nop
  400565:	90                   	nop
  400566:	90                   	nop
  400567:	90                   	nop
  400568:	90                   	nop
  400569:	90                   	nop
  40056a:	90                   	nop
  40056b:	90                   	nop
  40056c:	90                   	nop
  40056d:	90                   	nop
  40056e:	90                   	nop
  40056f:	90                   	nop
  400570:	90                   	nop
  400571:	90                   	nop
  400572:	90                   	nop
  400573:	90                   	nop
  400574:	90                   	nop
  400575:	90                   	nop
  400576:	90                   	nop
  400577:	90                   	nop
  400578:	90                   	nop
  400579:	90                   	nop
  40057a:	90                   	nop
  40057b:	90                   	nop
  40057c:	90                   	nop
  40057d:	90                   	nop
  40057e:	90                   	nop
  40057f:	90                   	nop
  400580:	90                   	nop
  400581:	90                   	nop
  400582:	90                   	nop
  400583:	90                   	nop
  400584:	90                   	nop
  400585:	90                   	nop
  400586:	90                   	nop
  400587:	90                   	nop
  400588:	90                   	nop
  400589:	90                   	nop
  40058a:	90                   	nop
  40058b:	90                   	nop
  40058c:	90                   	nop
  40058d:	90                   	nop
  40058e:	90                   	nop
  40058f:	90                   	nop
  400590:	90                   	nop
  400591:	90                   	nop
  400592:	90                   	nop
  400593:	90                   	nop
  400594:	90                   	nop
  400595:	90                   	nop
  400596:	90                   	nop
  400597:	90                   	nop
  400598:	90                   	nop
  400599:	90                   	nop
  40059a:	90                   	nop
  40059b:	90                   	nop
  40059c:	90                   	nop
  40059d:	90                   	nop
  40059e:	90                   	nop
  40059f:	90                   	nop
  4005a0:	90                   	nop
  4005a1:	90                   	nop
  4005a2:	90                   	nop
  4005a3:	90                   	nop
  4005a4:	90                   	nop
  4005a5:	90                   	nop
  4005a6:	90                   	nop
  4005a7:	90                   	nop
  4005a8:	90                   	nop
  4005a9:	90                   	nop
  4005aa:	90                   	nop
  4005ab:	90                   	nop
  4005ac:	90                   	nop
  4005ad:	90                   	nop
  4005ae:	90                   	nop
  4005af:	90                   	nop
  4005b0:	90                   	nop
  4005b1:	90                   	nop
  4005b2:	90                   	nop
  4005b3:	90                   	nop
  4005b4:	90                   	nop
  4005b5:	90                   	nop
  4005b6:	90                   	nop
  4005b7:	90                   	nop
  4005b8:	90                   	nop
  4005b9:	90                   	nop
  4005ba:	90                   	nop
  4005bb:	90                   	nop
  4005bc:	90                   	nop
  4005bd:	90                   	nop
  4005be:	90                   	nop
  4005bf:	90                   	nop
  4005c0:	90                   	nop
  4005c1:	90                   	nop
  4005c2:	90                   	nop
  4005c3:	90                   	nop
  4005c4:	90                   	nop
  4005c5:	90                   	nop
  4005c6:	90                   	nop
  4005c7:	90                   	nop
  4005c8:	90                   	nop
  4005c9:	90                   	nop
  4005ca:	90                   	nop
  4005cb:	90                   	nop
  4005cc:	90                   	nop
  4005cd:	90                   	nop
  4005ce:	90                   	nop
  4005cf:	90                   	nop
  4005d0:	90                   	nop
  4005d1:	90                   	nop
  4005d2:	90                   	nop
  4005d3:	90                   	nop
  4005d4:	90                   	nop
  4005d5:	90                   	nop
  4005d6:	90                   	nop
  4005d7:	90                   	nop
  4005d8:	90                   	nop
  4005d9:	90                   	nop
  4005da:	90                   	nop
  4005db:	90                   	nop
  4005dc:	90                   	nop
  4005dd:	90                   	nop
  4005de:	90                   	nop
  4005df:	90                   	nop
  4005e0:	90                   	nop
  4005e1:	90                   	nop
  4005e2:	90                   	nop
  4005e3:	90                   	nop
  4005e4:	90                   	nop
  4005e5:	90                   	nop
  4005e6:	90                   	nop
  4005e7:	90                   	nop
  4005e8:	90                   	nop
  4005e9:	90                   	nop
  4005ea:	90                   	nop
  4005eb:	90                   	nop
  4005ec:	90                   	nop
  4005ed:	90                   	nop
  4005ee:	90                   	nop
  4005ef:	90                   	nop
  4005f0:	90                   	nop
  4005f1:	90                   	nop
  4005f2:	90                   	nop
  4005f3:	90                   	nop
  4005f4:	90                   	nop
  4005f5:	90                   	nop
  4005f6:	90                   	nop
  4005f7:	90                   	nop
  4005f8:	90                   	nop
  4005f9:	90                   	nop
  4005fa:	90                   	nop
  4005fb:	90                   	nop
  4005fc:	90                   	nop
  4005fd:	90                   	nop
  4005fe:	90                   	nop
  4005ff:	90                   	nop
  400600:	c3                   	retq   
  400601:	90                   	nop
  400602:	90                   	nop
  400603:	90                   	nop
  400604:	90                   	nop
  400605:	90                   	nop
  400606:	90                   	nop
  400607:	90                   	nop
  400608:	90                   	nop
  400609:	90                   	nop
  40060a:	90                   	nop
  40060b:	90                   	nop
  40060c:	90                   	nop
  40060d:	90                   	nop
  40060e:	90                   	nop
  40060f:	90                   	nop
  400610:	90                   	nop
  400611:	90                   	nop
  400612:	90                   	nop
  400613:	90                   	nop
  400614:	90                   	nop
  400615:	90                   	nop
  400616:	90                   	nop
  400617:	90                   	nop
  400618:	90                   	nop
  400619:	90                   	nop
  40061a:	90                   	nop
  40061b:	90                   	nop
  40061c:	90                   	nop
  40061d:	90                   	nop
  40061e:	90                   	nop
  40061f:	90                   	nop
  400620:	90                   	nop
  400621:	90                   	nop
  400622:	90                   	nop
  400623:	90                   	nop
  400624:	90                   	nop
  400625:	90                   	nop
  400626:	90                   	nop
  400627:	90                   	nop
  400628:	90                   	nop
  400629:	90                   	nop
  40062a:	90                   	nop
  40062b:	90                   	nop
  40062c:	90                   	nop
  40062d:	90                   	nop
  40062e:	90                   	nop
  40062f:	90                   	nop
  400630:	90                   	nop
  400631:	90                   	nop
  400632:	90                   	nop
  400633:	90                   	nop
  400634:	90                   	nop
  400635:	90                   	nop
  400636:	90                   	nop
  400637:	90                   	nop
  400638:	90                   	nop
  400639:	90                   	nop
  40063a:	90                   	nop
  40063b:	90                   	nop
  40063c:	90                   	nop
  40063d:	90                   	nop
  40063e:	90                   	nop
  40063f:	90                   	nop
  400640:	90                   	nop
  400641:	90                   	nop
  400642:	90                   	nop
  400643:	90                   	nop
  400644:	90                   	nop
  400645:	90                   	nop
  400646:	90                   	nop
  400647:	90                   	nop
  400648:	90                   	nop
  400649:	90                   	nop
  40064a:	90                   	nop
  40064b:	90                   	nop
  40064c:	90                   	nop
  40064d:	90                   	nop
  40064e:	90                   	nop
  40064f:	90                   	nop
  400650:	90                   	nop
  400651:	90                   	nop
  400652:	90                   	nop
  400653:	90                   	nop
  400654:	90                   	nop
  400655:	90                   	nop
  400656:	90                   	nop
  400657:	90                   	nop
  400658:	90                   	nop
  400659:	90                   	nop
  40065a:	90                   	nop
  40065b:	90                   	nop
  40065c:	90                   	nop
  40065d:	90                   	nop
  40065e:	90                   	nop
  40065f:	90                   	nop
  400660:	90                   	nop
  400661:	90                   	nop
  400662:	90                   	nop
  400663:	90                   	nop
  400664:	90                   	nop
  400665:	90                   	nop
  400666:	90                   	nop
  400667:	90                   	nop
  400668:	90                   	nop
  400669:	90                   	nop
  40066a:	90                   	nop
  40066b:	90                   	nop
  40066c:	90                   	nop
  40066d:	90                   	nop
  40066e:	90                   	nop
  40066f:	90                   	nop
  400670:	90                   	nop
  400671:	90                   	nop
  400672:	90                   	nop
  400673:	90                   	nop
  400674:	90                   	nop
  400675:	90                   	nop
  400676:	90                   	nop
  400677:	90                   	nop
  400678:	90                   	nop
  400679:	90                   	nop
  40067a:	90                   	nop
  40067b:	90                   	nop
  40067c:	90                   	nop
  40067d:	90                   	nop
  40067e:	90                   	nop
  40067f:	90                   	nop
  400680:	90                   	nop
  400681:	90                   	nop
  400682:	90                   	nop
  400683:	90                   	nop
  400684:	90                   	nop
  400685:	90                   	nop
  400686:	90                   	nop
  400687:	90                   	nop
  400688:	90                   	nop
  400689:	90                   	nop
  40068a:	90                   	nop
  40068b:	90                   	nop
  40068c:	90                   	nop
  40068d:	90                   	nop
  40068e:	90                   	nop
  40068f:	90                   	nop
  400690:	90                   	nop
  400691:	90                   	nop
  400692:	90                   	nop
  400693:	90                   	nop
  400694:	90                   	nop
  400695:	90                   	nop
  400696:	90                   	nop
  400697:	90                   	nop
  400698:	90                   	nop
  400699:	90                   	nop
  40069a:	90                   	nop
  40069b:	90                   	nop
  40069c:	90                   	nop
  40069d:	90                   	nop
  40069e:	90                   	nop
  40069f:	90                   	nop
  4006a0:	90                   	nop
  4006a1:	90                   	nop
  4006a2:	90                   	nop
  4006a3:	90                   	nop
  4006a4:	90                   	nop
  4006a5:	90                   	nop
  4006a6:	90                   	nop
  4006a7:	90                   	nop
  4006a8:	90                   	nop
  4006a9:	90                   	nop
  4006aa:	90                   	nop
  4006ab:	90                   	nop
  4006ac:	90                   	nop
  4006ad:	90                   	nop
  4006ae:	90                   	nop
  4006af:	90                   	nop
  4006b0:	90                   	nop
  4006b1:	90                   	nop
  4006b2:	90                   	nop
  4006b3:	90                   	nop
  4006b4:	90                   	nop
  4006b5:	90                   	nop
  4006b6:	90                   	nop
  4006b7:	90                   	nop
  4006b8:	90                   	nop
  4006b9:	90                   	nop
  4006ba:	90                   	nop
  4006bb:	90                   	nop
  4006bc:	90                   	nop
  4006bd:	90                   	nop
  4006be:	90                   	nop
  4006bf:	90                   	nop
  4006c0:	90                   	nop
  4006c1:	90                   	nop
  4006c2:	90                   	nop
  4006c3:	90                   	nop
  4006c4:	90                   	nop
  4006c5:	90                   	nop
  4006c6:	90                   	nop
  4006c7:	90                   	nop
  4006c8:	90                   	nop
  4006c9:	90                   	nop
  4006ca:	90                   	nop
  4006cb:	90                   	nop
  4006cc:	90                   	nop
  4006cd:	c3                   	retq   
  4006ce:	90                   	nop
  4006cf:	90                   	nop
  4006d0:	90                   	nop
  4006d1:	90                   	nop
  4006d2:	90                   	nop
  4006d3:	90                   	nop
  4006d4:	90                   	nop
  4006d5:	90                   	nop
  4006d6:	90                   	nop
  4006d7:	90                   	nop
  4006d8:	90                   	nop
  4006d9:	90                   	nop
  4006da:	90                   	nop
  4006db:	90                   	nop
  4006dc:	90                   	nop
  4006dd:	90                   	nop
  4006de:	90                   	nop
  4006df:	90                   	nop
  4006e0:	90                   	nop
  4006e1:	90                   	nop
  4006e2:	90                   	nop
  4006e3:	90                   	nop
  4006e4:	90                   	nop
  4006e5:	90                   	nop
  4006e6:	90                   	nop
  4006e7:	90                   	nop
  4006e8:	90                   	nop
  4006e9:	90                   	nop
  4006ea:	90                   	nop
  4006eb:	90                   	nop
  4006ec:	90                   	nop
  4006ed:	90                   	nop
  4006ee:	90                   	nop
  4006ef:	90                   	nop
  4006f0:	90                   	nop
  4006f1:	90                   	nop
  4006f2:	90                   	nop
  4006f3:	90                   	nop
  4006f4:	90                   	nop
  4006f5:	90                   	nop
  4006f6:	90                   	nop
  4006f7:	90                   	nop
  4006f8:	90                   	nop
  4006f9:	90                   	nop
  4006fa:	90                   	nop
  4006fb:	90                   	nop
  4006fc:	90                   	nop
  4006fd:	90                   	nop
  4006fe:	90                   	nop
  4006ff:	90                   	nop
  400700:	90                   	nop
  400701:	90                   	nop
  400702:	90                   	nop
  400703:	90                   	nop
  400704:	90                   	nop
  400705:	90                   	nop
  400706:	90                   	nop
  400707:	90                   	nop
  400708:	90                   	nop
  400709:	90                   	nop
  40070a:	90                   	nop
  40070b:	90                   	nop
  40070c:	90                   	nop
  40070d:	90                   	nop
  40070e:	90                   	nop
  40070f:	90                   	nop
  400710:	90                   	nop
  400711:	90                   	nop
  400712:	90                   	nop
  400713:	90                   	nop
  400714:	90                   	nop
  400715:	90                   	nop
  400716:	90                   	nop
  400717:	90                   	nop
  400718:	90                   	nop
  400719:	90                   	nop
  40071a:	90                   	nop
  40071b:	90                   	nop
  40071c:	90                   	nop
  40071d:	90                   	nop
  40071e:	90                   	nop
  40071f:	90                   	nop
  400720:	90                   	nop
  400721:	90                   	nop
  400722:	90                   	nop
  400723:	90                   	nop
  400724:	90                   	nop
  400725:	90                   	nop
  400726:	90                   	nop
  400727:	90                   	nop
  400728:	90                   	nop
  400729:	90                   	nop
  40072a:	90                   	nop
  40072b:	90                   	nop
  40072c:	90                   	nop
  40072d:	90                   	nop
  40072e:	90                   	nop
  40072f:	90                   	nop
  400730:	90                   	nop
  400731:	90                   	nop
  400732:	90                   	nop
  400733:	90                   	nop
  400734:	90                   	nop
  400735:	90                   	nop
  400736:	90                   	nop
  400737:	90                   	nop
  400738:	90                   	nop
  400739:	90                   	nop
  40073a:	90                   	nop
  40073b:	90                   	nop
  40073c:	90                   	nop
  40073d:	90                   	nop
  40073e:	90                   	nop
  40073f:	90                   	nop
  400740:	90                   	nop
  400741:	90                   	nop
  400742:	90                   	nop
  400743:	90                   	nop
  400744:	90                   	nop
  400745:	90                   	nop
  400746:	90                   	nop
  400747:	90                   	nop
  400748:	90                   	nop
  400749:	90                   	nop
  40074a:	90                   	nop
  40074b:	90                   	nop
  40074c:	90                   	nop
  40074d:	90                   	nop
  40074e:	90                   	nop
  40074f:	90                   	nop
  400750:	90                   	nop
  400751:	90                   	nop
  400752:	90                   	nop
  400753:	90                   	nop
  400754:	90                   	nop
  400755:	90                   	nop
  400756:	90                   	nop
  400757:	90                   	nop
  400758:	90                   	nop
  400759:	90                   	nop
  40075a:	90                   	nop
  40075b:	90                   	nop
  40075c:	90                   	nop
  40075d:	90                   	nop
  40075e:	90                   	nop
  40075f:	90                   	nop
  400760:	90                   	nop
  400761:	90                   	nop
  400762:	90                   	nop
  400763:	90                   	nop
  400764:	90                   	nop
  400765:	90                   	nop
  400766:	90                   	nop
  400767:	90                   	nop
  400768:	90                   	nop
  400769:	90                   	nop
  40076a:	90                   	nop
  40076b:	90                   	nop
  40076c:	90                   	nop
  40076d:	90                   	nop
  40076e:	90                   	nop
  40076f:	90                   	nop
  400770:	90                   	nop
  400771:	90                   	nop
  400772:	90                   	nop
  400773:	90                   	nop
  400774:	90                   	nop
  400775:	90                   	nop
  400776:	90                   	nop
  400777:	90                   	nop
  400778:	90                   	nop
  400779:	90                   	nop
  40077a:	90                   	nop
  40077b:	90                   	nop
  40077c:	90                   	nop
  40077d:	90                   	nop
  40077e:	90                   	nop
  40077f:	90                   	nop
  400780:	90                   	nop
  400781:	90                   	nop
  400782:	90                   	nop
  400783:	90                   	nop
  400784:	90                   	nop
  400785:	90                   	nop
  400786:	90                   	nop
  400787:	90                   	nop
  400788:	90                   	nop
  400789:	90                   	nop
  40078a:	90                   	nop
  40078b:	90                   	nop
  40078c:	90                   	nop
  40078d:	90                   	nop
  40078e:	90                   	nop
  40078f:	90                   	nop
  400790:	90                   	nop
  400791:	90                   	nop
  400792:	90                   	nop
  400793:	90                   	nop
  400794:	90                   	nop
  400795:	90                   	nop
  400796:	90                   	nop
  400797:	90                   	nop
  400798:	90                   	nop
  400799:	90                   	nop
  40079a:	c3                   	retq   
  40079b:	90                   	nop
  40079c:	90                   	nop
  40079d:	90                   	nop
  40079e:	90                   	nop
  40079f:	90                   	nop
  4007a0:	90                   	nop
  4007a1:	90                   	nop
  4007a2:	90                   	nop
  4007a3:	90                   	nop
  4007a4:	90                   	nop
  4007a5:	90                   	nop
  4007a6:	90                   	nop
  4007a7:	90                   	nop
  4007a8:	90                   	nop
  4007a9:	90                   	nop
  4007aa:	90                   	nop
  4007ab:	90                   	nop
  4007ac:	90                   	nop
  4007ad:	90                   	nop
  4007ae:	90                   	nop
  4007af:	90                   	nop
  4007b0:	90                   	nop
  4007b1:	90                   	nop
  4007b2:	90                   	nop
  4007b3:	90                   	nop
  4007b4:	90                   	nop
  4007b5:	90                   	nop
  4007b6:	90                   	nop
  4007b7:	90                   	nop
  4007b8:	90                   	nop
  4007b9:	90                   	nop
  4007ba:	90                   	nop
  4007bb:	90                   	nop
  4007bc:	90                   	nop
  4007bd:	90                   	nop
  4007be:	90                   	nop
  4007bf:	90                   	nop
  4007c0:	90                   	nop
  4007c1:	90                   	nop
  4007c2:	90                   	nop
  4007c3:	90                   	nop
  4007c4:	90                   	nop
  4007c5:	90                   	nop
  4007c6:	90                   	nop
  4007c7:	90                   	nop
  4007c8:	90                   	nop
  4007c9:	90                   	nop
  4007ca:	90                   	nop
  4007cb:	90                   	nop
  4007cc:	90                   	nop
  4007cd:	90                   	nop
  4007ce:	90                   	nop
  4007cf:	90                   	nop
  4007d0:	90                   	nop
  4007d1:	90                   	nop
  4007d2:	90                   	nop
  4007d3:	90                   	nop
  4007d4:	90                   	nop
  4007d5:	90                   	nop
  4007d6:	90                   	nop
  4007d7:	90                   	nop
  4007d8:	90                   	nop
  4007d9:	90                   	nop
  4007da:	90                   	nop
  4007db:	90                   	nop
  4007dc:	90                   	nop
  4007dd:	90                   	nop
  4007de:	90                   	nop
  4007df:	90                   	nop
  4007e0:	90                   	nop
  4007e1:	90                   	nop
  4007e2:	90                   	nop
  4007e3:	90                   	nop
  4007e4:	90                   	nop
  4007e5:	90                   	nop
  4007e6:	90                   	nop
  4007e7:	90                   	nop
  4007e8:	90                   	nop
  4007e9:	90                   	nop
  4007ea:	90                   	nop
  4007eb:	90                   	nop
  4007ec:	90                   	nop
  4007ed:	90                   	nop
  4007ee:	90                   	nop
  4007ef:	90                   	nop
  4007f0:	90                   	nop
  4007f1:	90                   	nop
  4007f2:	90                   	nop
  4007f3:	90                   	nop
  4007f4:	90                   	nop
  4007f5:	90                   	nop
  4007f6:	90                   	nop
  4007f7:	90                   	nop
  4007f8:	90                   	nop
  4007f9:	90                   	nop
  4007fa:	90                   	nop
  4007fb:	90                   	nop
  4007fc:	90                   	nop
  4007fd:	90                   	nop
  4007fe:	90                   	nop
  4007ff:	90                   	nop
  400800:	90                   	nop
  400801:	90                   	nop
  400802:	90                   	nop
  400803:	90                   	nop
  400804:	90                   	nop
  400805:	90                   	nop
  400806:	90                   	nop
  400807:	90                   	nop
  400808:	90                   	nop
  400809:	90                   	nop
  40080a:	90                   	nop
  40080b:	90                   	nop
  40080c:	90                   	nop
  40080d:	90                   	nop
  40080e:	90                   	nop
  40080f:	90                   	nop
  400810:	90                   	nop
  400811:	90                   	nop
  400812:	90                   	nop
  400813:	90                   	nop
  400814:	90                   	nop
  400815:	90                   	nop
  400816:	90                   	nop
  400817:	90                   	nop
  400818:	90                   	nop
  400819:	90                   	nop
  40081a:	90                   	nop
  40081b:	90                   	nop
  40081c:	90                   	nop
  40081d:	90                   	nop
  40081e:	90                   	nop
  40081f:	90                   	nop
  400820:	90                   	nop
  400821:	90                   	nop
  400822:	90                   	nop
  400823:	90                   	nop
  400824:	90                   	nop
  400825:	90                   	nop
  400826:	90                   	nop
  400827:	90                   	nop
  400828:	90                   	nop
  400829:	90                   	nop
  40082a:	90                   	nop
  40082b:	90                   	nop
  40082c:	90                   	nop
  40082d:	90                   	nop
  40082e:	90                   	nop
  40082f:	90                   	nop
  400830:	90                   	nop
  400831:	90                   	nop
  400832:	90                   	nop
  400833:	90                   	nop
  400834:	90                   	nop
  400835:	90                   	nop
  400836:	90                   	nop
  400837:	90                   	nop
  400838:	90                   	nop
  400839:	90                   	nop
  40083a:	90                   	nop
  40083b:	90                   	nop
  40083c:	90                   	nop
  40083d:	90                   	nop
  40083e:	90                   	nop
  40083f:	90                   	nop
  400840:	90                   	nop
  400841:	90                   	nop
  400842:	90                   	nop
  400843:	90                   	nop
  400844:	90                   	nop
  400845:	90                   	nop
  400846:	90                   	nop
  400847:	90                   	nop
  400848:	90                   	nop
  400849:	90                   	nop
  40084a:	90                   	nop
  40084b:	90                   	nop
  40084c:	90                   	nop
  40084d:	90                   	nop
  40084e:	90                   	nop
  40084f:	90                   	nop
  400850:	90                   	nop
  400851:	90                   	nop
  400852:	90                   	nop
  400853:	90                   	nop
  400854:	90                   	nop
  400855:	90                   	nop
  400856:	90                   	nop
  400857:	90                   	nop
  400858:	90                   	nop
  400859:	90                   	nop
  40085a:	90                   	nop
  40085b:	90                   	nop
  40085c:	90                   	nop
  40085d:	90                   	nop
  40085e:	90                   	nop
  40085f:	90                   	nop
  400860:	90                   	nop
  400861:	90                   	nop
  400862:	90                   	nop
  400863:	90                   	nop
  400864:	90                   	nop
  400865:	90                   	nop
  400866:	90                   	nop
  400867:	c3                   	retq   
  400868:	90                   	nop
  400869:	90                   	nop
  40086a:	90                   	nop
  40086b:	90                   	nop
  40086c:	90                   	nop
  40086d:	90                   	nop
  40086e:	90                   	nop
  40086f:	90                   	nop
  400870:	90                   	nop
  400871:	90                   	nop
  400872:	90                   	nop
  400873:	90                   	nop
  400874:	90                   	nop
  400875:	90                   	nop
  400876:	90                   	nop
  400877:	90                   	nop
  400878:	90                   	nop
  400879:	90                   	nop
  40087a:	90                   	nop
  40087b:	90                   	nop
  40087c:	90                   	nop
  40087d:	90                   	nop
  40087e:	90                   	nop
  40087f:	90                   	nop
  400880:	90                   	nop
  400881:	90                   	nop
  400882:	90                   	nop
  400883:	90                   	nop
  400884:	90                   	nop
  400885:	90                   	nop
  400886:	90                   	nop
  400887:	90                   	nop
  400888:	90                   	nop
  400889:	90                   	nop
  40088a:	90                   	nop
  40088b:	90                   	nop
  40088c:	90                   	nop
  40088d:	90                   	nop
  40088e:	90                   	nop
  40088f:	90                   	nop
  400890:	90                   	nop
  400891:	90                   	nop
  400892:	90                   	nop
  400893:	90                   	nop
  400894:	90                   	nop
  400895:	90                   	nop
  400896:	90                   	nop
  400897:	90                   	nop
  400898:	90                   	nop
  400899:	90                   	nop
  40089a:	90                   	nop
  40089b:	90                   	nop
  40089c:	90                   	nop
  40089d:	90                   	nop
  40089e:	90                   	nop
  40089f:	90                   	nop
  4008a0:	90                   	nop
  4008a1:	90                   	nop
  4008a2:	90                   	nop
  4008a3:	90                   	nop
  4008a4:	90                   	nop
  4008a5:	90                   	nop
  4008a6:	90                   	nop
  4008a7:	90                   	nop
  4008a8:	90                   	nop
  4008a9:	90                   	nop
  4008aa:	90                   	nop
  4008ab:	90                   	nop
  4008ac:	90                   	nop
  4008ad:	90                   	nop
  4008ae:	90                   	nop
  4008af:	90                   	nop
  4008b0:	90                   	nop
  4008b1:	90                   	nop
  4008b2:	90                   	nop
  4008b3:	90                   	nop
  4008b4:	90                   	nop
  4008b5:	90                   	nop
  4008b6:	90                   	nop
  4008b7:	90                   	nop
  4008b8:	90                   	nop
  4008b9:	90                   	nop
  4008ba:	90                   	nop
  4008bb:	90                   	nop
  4008bc:	90                   	nop
  4008bd:	90                   	nop
  4008be:	90                   	nop
  4008bf:	90                   	nop
  4008c0:	90                   	nop
  4008c1:	90                   	nop
  4008c2:	90                   	nop
  4008c3:	90                   	nop
  4008c4:	90                   	nop
  4008c5:	90                   	nop
  4008c6:	90                   	nop
  4008c7:	90                   	nop
  4008c8:	90                   	nop
  4008c9:	90                   	nop
  4008ca:	90                   	nop
  4008cb:	90                   	nop
  4008cc:	90                   	nop
  4008cd:	90                   	nop
  4008ce:	90                   	nop
  4008cf:	90                   	nop
  4008d0:	90                   	nop
  4008d1:	90                   	nop
  4008d2:	90                   	nop
  4008d3:	90                   	nop
  4008d4:	90                   	nop
  4008d5:	90                   	nop
  4008d6:	90                   	nop
  4008d7:	90                   	nop
  4008d8:	90                   	nop
  4008d9:	90                   	nop
  4008da:	90                   	nop
  4008db:	90                   	nop
  4008dc:	90                   	nop
  4008dd:	90                   	nop
  4008de:	90                   	nop
  4008df:	90                   	nop
  4008e0:	90                   	nop
  4008e1:	90                   	nop
  4008e2:	90                   	nop
  4008e3:	90                   	nop
  4008e4:	90                   	nop
  4008e5:	90                   	nop
  4008e6:	90                   	nop
  4008e7:	90                   	nop
  4008e8:	90                   	nop
  4008e9:	90                   	nop
  4008ea:	90                   	nop
  4008eb:	90                   	nop
  4008ec:	90                   	nop
  4008ed:	90                   	nop
  4008ee:	90                   	nop
  4008ef:	90                   	nop
  4008f0:	90                   	nop
  4008f1:	90                   	nop
  4008f2:	90                   	nop
  4008f3:	90                   	nop
  4008f4:	90                   	nop
  4008f5:	90                   	nop
  4008f6:	90                   	nop
  4008f7:	90                   	nop
  4008f8:	90                   	nop
  4008f9:	90                   	nop
  4008fa:	90                   	nop
  4008fb:	90                   	nop
  4008fc:	90                   	nop
  4008fd:	90                   	nop
  4008fe:	90                   	nop
  4008ff:	90                   	nop
  400900:	90                   	nop
  400901:	90                   	nop
  400902:	90                   	nop
  400903:	90                   	nop
  400904:	90                   	nop
  400905:	90                   	nop
  400906:	90                   	nop
  400907:	90                   	nop
  400908:	90                   	nop
  400909:	90                   	nop
  40090a:	90                   	nop
  40090b:	90                   	nop
  40090c:	90                   	nop
  40090d:	90                   	nop
  40090e:	90                   	nop
  40090f:	90                   	nop
  400910:	90                   	nop
  400911:	90                   	nop
  400912:	90                   	nop
  400913:	90                   	nop
  400914:	90                   	nop
  400915:	90                   	nop
  400916:	90                   	nop
  400917:	90                   	nop
  400918:	90                   	nop
  400919:	90                   	nop
  40091a:	90                   	nop
  40091b:	90                   	nop
  40091c:	90                   	nop
  40091d:	90                   	nop
  40091e:	90                   	nop
  40091f:	90                   	nop
  400920:	90                   	nop
  400921:	90                   	nop
  400922:	90                   	nop
  400923:	90                   	nop
  400924:	90                   	nop
  400925:	90                   	nop
  400926:	90                   	nop
  400927:	90                   	nop
  400928:	90                   	nop
  400929:	90                   	nop
  40092a:	90                   	nop
  40092b:	90                   	nop
  40092c:	90                   	nop
  40092d:	90                   	nop
  40092e:	90                   	nop
  40092f:	90                   	nop
  400930:	90                   	nop
  400931:	90                   	nop
  400932:	90                   	nop
  400933:	90                   	nop
  400934:	c3                   	retq   
  400935:	90                   	nop
  400936:	90                   	nop
  400937:	90                   	nop
  400938:	90                   	nop
  400939:	90                   	nop
  40093a:	90                   	nop
  40093b:	90                   	nop
  40093c:	90                   	nop
  40093d:	90                   	nop
  40093e:	90                   	nop
  40093f:	90                   	nop
  400940:	90                   	nop
  400941:	90                   	nop
  400942:	90                   	nop
  400943:	90                   	nop
  400944:	90                   	nop
  400945:	90                   	nop
  400946:	90                   	nop
  400947:	90                   	nop
  400948:	90                   	nop
  400949:	90                   	nop
  40094a:	90                   	nop
  40094b:	90                   	nop
  40094c:	90                   	nop
  40094d:	90                   	nop
  40094e:	90                   	nop
  40094f:	90                   	nop
  400950:	90                   	nop
  400951:	90                   	nop
  400952:	90                   	nop
  400953:	90                   	nop
  400954:	90                   	nop
  400955:	90                   	nop
  400956:	90                   	nop
  400957:	90                   	nop
  400958:	90                   	nop
  400959:	90                   	nop
  40095a:	90                   	nop
  40095b:	90                   	nop
  40095c:	90                   	nop
  40095d:	90                   	nop
  40095e:	90                   	nop
  40095f:	90                   	nop
  400960:	90                   	nop
  400961:	90                   	nop
  400962:	90                   	nop
  400963:	90                   	nop
  400964:	90                   	nop
  400965:	90                   	nop
  400966:	90                   	nop
  400967:	90                   	nop
  400968:	90                   	nop
  400969:	90                   	nop
  40096a:	90                   	nop
  40096b:	90                   	nop
  40096c:	90                   	nop
  40096d:	90                   	nop
  40096e:	90                   	nop
  40096f:	90                   	nop
  400970:	90                   	nop
  400971:	90                   	nop
  400972:	90                   	nop
  400973:	90                   	nop
  400974:	90                   	nop
  400975:	90                   	nop
  400976:	90                   	nop
  400977:	90                   	nop
  400978:	90                   	nop
  400979:	90                   	nop
  40097a:	90                   	nop
  40097b:	90                   	nop
  40097c:	90                   	nop
  40097d:	90                   	nop
  40097e:	90                   	nop
  40097f:	90                   	nop
  400980:	90                   	nop
  400981:	90                   	nop
  400982:	90                   	nop
  400983:	90                   	nop
  400984:	90                   	nop
  400985:	90                   	nop
  400986:	90                   	nop
  400987:	90                   	nop
  400988:	90                   	nop
  400989:	90                   	nop
  40098a:	90                   	nop
  40098b:	90                   	nop
  40098c:	90                   	nop
  40098d:	90                   	nop
  40098e:	90                   	nop
  40098f:	90                   	nop
  400990:	90                   	nop
  400991:	90                   	nop
  400992:	90                   	nop
  400993:	90                   	nop
  400994:	90                   	nop
  400995:	90                   	nop
  400996:	90                   	nop
  400997:	90                   	nop
  400998:	90                   	nop
  400999:	90                   	nop
  40099a:	90                   	nop
  40099b:	90                   	nop
  40099c:	90                   	nop
  40099d:	90                   	nop
  40099e:	90                   	nop
  40099f:	90                   	nop
  4009a0:	90                   	nop
  4009a1:	90                   	nop
  4009a2:	90                   	nop
  4009a3:	90                   	nop
  4009a4:	90                   	nop
  4009a5:	90                   	nop
  4009a6:	90                   	nop
  4009a7:	90                   	nop
  4009a8:	90                   	nop
  4009a9:	90                   	nop
  4009aa:	90                   	nop
  4009ab:	90                   	nop
  4009ac:	90                   	nop
  4009ad:	90                   	nop
  4009ae:	90                   	nop
  4009af:	90                   	nop
  4009b0:	90                   	nop
  4009b1:	90                   	nop
  4009b2:	90                   	nop
  4009b3:	90                   	nop
  4009b4:	90                   	nop
  4009b5:	90                   	nop
  4009b6:	90                   	nop
  4009b7:	90                   	nop
  4009b8:	90                   	nop
  4009b9:	90                   	nop
  4009ba:	90                   	nop
  4009bb:	90                   	nop
  4009bc:	90                   	nop
  4009bd:	90                   	nop
  4009be:	90                   	nop
  4009bf:	90                   	nop
  4009c0:	90                   	nop
  4009c1:	90                   	nop
  4009c2:	90                   	nop
  4009c3:	90                   	nop
  4009c4:	90                   	nop
  4009c5:	90                   	nop
  4009c6:	90                   	nop
  4009c7:	90                   	nop
  4009c8:	90                   	nop
  4009c9:	90                   	nop
  4009ca:	90                   	nop
  4009cb:	90                   	nop
  4009cc:	90                   	nop
  4009cd:	90                   	nop
  4009ce:	90                   	nop
  4009cf:	90                   	nop
  4009d0:	90                   	nop
  4009d1:	90                   	nop
  4009d2:	90                   	nop
  4009d3:	90                   	nop
  4009d4:	90                   	nop
  4009d5:	90                   	nop
  4009d6:	90                   	nop
  4009d7:	90                   	nop
  4009d8:	90                   	nop
  4009d9:	90                   	nop
  4009da:	90                   	nop
  4009db:	90                   	nop
  4009dc:	90                   	nop
  4009dd:	90                   	nop
  4009de:	90                   	nop
  4009df:	90                   	nop
  4009e0:	90                   	nop
  4009e1:	90                   	nop
  4009e2:	90                   	nop
  4009e3:	90                   	nop
  4009e4:	90                   	nop
  4009e5:	90                   	nop
  4009e6:	90                   	nop
  4009e7:	90                   	nop
  4009e8:	90                   	nop
  4009e9:	90                   	nop
  4009ea:	90                   	nop
  4009eb:	90                   	nop
  4009ec:	90                   	nop
  4009ed:	90                   	nop
  4009ee:	90                   	nop
  4009ef:	90                   	nop
  4009f0:	90                   	nop
  4009f1:	90                   	nop
  4009f2:	90                   	nop
  4009f3:	90                   	nop
  4009f4:	90                   	nop
  4009f5:	90                   	nop
  4009f6:	90                   	nop
  4009f7:	90                   	nop
  4009f8:	90                   	nop
  4009f9:	90                   	nop
  4009fa:	90                   	nop
  4009fb:	90                   	nop
  4009fc:	90                   	nop
  4009fd:	90                   	nop
  4009fe:	90                   	nop
  4009ff:	90                   	nop
  400a00:	90                   	nop
  400a01:	c3                   	retq   
  400a02:	90                   	nop
  400a03:	90                   	nop
  400a04:	90                   	nop
  400a05:	90                   	nop
  400a06:	90                   	nop
  400a07:	90                   	nop
  400a08:	90                   	nop
  400a09:	90                   	nop
  400a0a:	90                   	nop
  400a0b:	90                   	nop
  400a0c:	90                   	nop
  400a0d:	90                   	nop
  400a0e:	90                   	nop
  400a0f:	90                   	nop
  400a10:	90                   	nop
  400a11:	90                   	nop
  400a12:	90                   	nop
  400a13:	90                   	nop
  400a14:	90                   	nop
  400a15:	90                   	nop
  400a16:	90                   	nop
  400a17:	90                   	nop
  400a18:	90                   	nop
  400a19:	90                   	nop
  400a1a:	90                   	nop
  400a1b:	90                   	nop
  400a1c:	90                   	nop
  400a1d:	90                   	nop
  400a1e:	90                   	nop
  400a1f:	90                   	nop
  400a20:	90                   	nop
  400a21:	90                   	nop
  400a22:	90                   	nop
  400a23:	90                   	nop
  400a24:	90                   	nop
  400a25:	90                   	nop
  400a26:	90                   	nop
  400a27:	90                   	nop
  400a28:	90                   	nop
  400a29:	90                   	nop
  400a2a:	90                   	nop
  400a2b:	90                   	nop
  400a2c:	90                   	nop
  400a2d:	90                   	nop
  400a2e:	90                   	nop
  400a2f:	90                   	nop
  400a30:	90                   	nop
  400a31:	90                   	nop
  400a32:	90                   	nop
  400a33:	90                   	nop
  400a34:	90                   	nop
  400a35:	90                   	nop
  400a36:	90                   	nop
  400a37:	90                   	nop
  400a38:	90                   	nop
  400a39:	90                   	nop
  400a3a:	90                   	nop
  400a3b:	90                   	nop
  400a3c:	90                   	nop
  400a3d:	90                   	nop
  400a3e:	90                   	nop
  400a3f:	90                   	nop
  400a40:	90                   	nop
  400a41:	90                   	nop
  400a42:	90                   	nop
  400a43:	90                   	nop
  400a44:	90                   	nop
  400a45:	90                   	nop
  400a46:	90                   	nop
  400a47:	90                   	nop
  400a48:	90                   	nop
  400a49:	90                   	nop
  400a4a:	90                   	nop
  400a4b:	90                   	nop
  400a4c:	90                   	nop
  400a4d:	90                   	nop
  400a4e:	90                   	nop
  400a4f:	90                   	nop
  400a50:	90                   	nop
  400a51:	90                   	nop
  400a52:	90                   	nop
  400a53:	90                   	nop
  400a54:	90                   	nop
  400a55:	90                   	nop
  400a56:	90                   	nop
  400a57:	90                   	nop
  400a58:	90                   	nop
  400a59:	90                   	nop
  400a5a:	90                   	nop
  400a5b:	90                   	nop
  400a5c:	90                   	nop
  400a5d:	90                   	nop
  400a5e:	90                   	nop
  400a5f:	90                   	nop
  400a60:	90                   	nop
  400a61:	90                   	nop
  400a62:	90                   	nop
  400a63:	90                   	nop
  400a64:	90                   	nop
  400a65:	90                   	nop
  400a66:	90                   	nop
  400a67:	90                   	nop
  400a68:	90                   	nop
  400a69:	90                   	nop
  400a6a:	90                   	nop
  400a6b:	90                   	nop
  400a6c:	90                   	nop
  400a6d:	90                   	nop
  400a6e:	90                   	nop
  400a6f:	90                   	nop
  400a70:	90                   	nop
  400a71:	90                   	nop
  400a72:	90                   	nop
  400a73:	90                   	nop
  400a74:	90                   	nop
  400a75:	90                   	nop
  400a76:	90                   	nop
  400a77:	90                   	nop
  400a78:	90                   	nop
  400a79:	90                   	nop
  400a7a:	90                   	nop
  400a7b:	90                   	nop
  400a7c:	90                   	nop
  400a7d:	90                   	nop
  400a7e:	90                   	nop
  400a7f:	90                   	nop
  400a80:	90                   	nop
  400a81:	90                   	nop
  400a82:	90                   	nop
  400a83:	90                   	nop
  400a84:	90                   	nop
  400a85:	90                   	nop
  400a86:	90                   	nop
  400a87:	90                   	nop
  400a88:	90                   	nop
  400a89:	90                   	nop
  400a8a:	90                   	nop
  400a8b:	90                   	nop
  400a8c:	90                   	nop
  400a8d:	90                   	nop
  400a8e:	90                   	nop
  400a8f:	90                   	nop
  400a90:	90                   	nop
  400a91:	90                   	nop
  400a92:	90                   	nop
  400a93:	90                   	nop
  400a94:	90                   	nop
  400a95:	90                   	nop
  400a96:	90                   	nop
  400a97:	90                   	nop
  400a98:	90                   	nop
  400a99:	90                   	nop
  400a9a:	90                   	nop
  400a9b:	90                   	nop
  400a9c:	90                   	nop
  400a9d:	90                   	nop
  400a9e:	90                   	nop
  400a9f:	90                   	nop
  400aa0:	90                   	nop
  400aa1:	90                   	nop
  400aa2:	90                   	nop
  400aa3:	90                   	nop
  400aa4:	90                   	nop
  400aa5:	90                   	nop
  400aa6:	90                   	nop
  400aa7:	90                   	nop
  400aa8:	90                   	nop
  400aa9:	90                   	nop
  400aaa:	90                   	nop
  400aab:	90                   	nop
  400aac:	90                   	nop
  400aad:	90                   	nop
  400aae:	90                   	nop
  400aaf:	90                   	nop
  400ab0:	90                   	nop
  400ab1:	90                   	nop
  400ab2:	90                   	nop
  400ab3:	90                   	nop
  400ab4:	90                   	nop
  400ab5:	90                   	nop
  400ab6:	90                   	nop
  400ab7:	90                   	nop
  400ab8:	90                   	nop
  400ab9:	90                   	nop
  400aba:	90                   	nop
  400abb:	90                   	nop
  400abc:	90                   	nop
  400abd:	90                   	nop
  400abe:	90                   	nop
  400abf:	90                   	nop
  400ac0:	90                   	nop
  400ac1:	90                   	nop
  400ac2:	90                   	nop
  400ac3:	90                   	nop
  400ac4:	90                   	nop
  400ac5:	90                   	nop
  400ac6:	90                   	nop
  400ac7:	90                   	nop
  400ac8:	90                   	nop
  400ac9:	90                   	nop
  400aca:	90                   	nop
  400acb:	90                   	nop
  400acc:	90                   	nop
  400acd:	90                   	nop
  400ace:	c3                   	retq   
  400acf:	90                   	nop
  400ad0:	90                   	nop
  400ad1:	90                   	nop
  400ad2:	90                   	nop
  400ad3:	90                   	nop
  400ad4:	90                   	nop
  400ad5:	90                   	nop
  400ad6:	90                   	nop
  400ad7:	90                   	nop
  400ad8:	90                   	nop
  400ad9:	90                   	nop
  400ada:	90                   	nop
  400adb:	90                   	nop
  400adc:	90                   	nop
  400add:	90                   	nop
  400ade:	90                   	nop
  400adf:	90                   	nop
  400ae0:	90                   	nop
  400ae1:	90                   	nop
  400ae2:	90                   	nop
  400ae3:	90                   	nop
  400ae4:	90                   	nop
  400ae5:	90                   	nop
  400ae6:	90                   	nop
  400ae7:	90                   	nop
  400ae8:	90                   	nop
  400ae9:	90                   	nop
  400aea:	90                   	nop
  400aeb:	90                   	nop
  400aec:	90                   	nop
  400aed:	90                   	nop
  400aee:	90                   	nop
  400aef:	90                   	nop
  400af0:	90                   	nop
  400af1:	90                   	nop
  400af2:	90                   	nop
  400af3:	90                   	nop
  400af4:	90                   	nop
  400af5:	90                   	nop
  400af6:	90                   	nop
  400af7:	90                   	nop
  400af8:	90                   	nop
  400af9:	90                   	nop
  400afa:	90                   	nop
  400afb:	90                   	nop
  400afc:	90                   	nop
  400afd:	90                   	nop
  400afe:	90                   	nop
  400aff:	90                   	nop
  400b00:	90                   	nop
  400b01:	90                   	nop
  400b02:	90                   	nop
  400b03:	90                   	nop
  400b04:	90                   	nop
  400b05:	90                   	nop
  400b06:	90                   	nop
  400b07:	90                   	nop
  400b08:	90                   	nop
  400b09:	90                   	nop
  400b0a:	90                   	nop
  400b0b:	90                   	nop
  400b0c:	90                   	nop
  400b0d:	90                   	nop
  400b0e:	90                   	nop
  400b0f:	90                   	nop
  400b10:	90                   	nop
  400b11:	90                   	nop
  400b12:	90                   	nop
  400b13:	90                   	nop
  400b14:	90                   	nop
  400b15:	90                   	nop
  400b16:	90                   	nop
  400b17:	90                   	nop
  400b18:	90                   	nop
  400b19:	90                   	nop
  400b1a:	90                   	nop
  400b1b:	90                   	nop
  400b1c:	90                   	nop
  400b1d:	90                   	nop
  400b1e:	90                   	nop
  400b1f:	90                   	nop
  400b20:	90                   	nop
  400b21:	90                   	nop
  400b22:	90                   	nop
  400b23:	90                   	nop
  400b24:	90                   	nop
  400b25:	90                   	nop
  400b26:	90                   	nop
  400b27:	90                   	nop
  400b28:	90                   	nop
  400b29:	90                   	nop
  400b2a:	90                   	nop
  400b2b:	90                   	nop
  400b2c:	90                   	nop
  400b2d:	90                   	nop
  400b2e:	90                   	nop
  400b2f:	90                   	nop
  400b30:	90                   	nop
  400b31:	90                   	nop
  400b32:	90                   	nop
  400b33:	90                   	nop
  400b34:	90                   	nop
  400b35:	90                   	nop
  400b36:	90                   	nop
  400b37:	90                   	nop
  400b38:	90                   	nop
  400b39:	90                   	nop
  400b3a:	90                   	nop
  400b3b:	90                   	nop
  400b3c:	90                   	nop
  400b3d:	90                   	nop
  400b3e:	90                   	nop
  400b3f:	90                   	nop
  400b40:	90                   	nop
  400b41:	90                   	nop
  400b42:	90                   	nop
  400b43:	90                   	nop
  400b44:	90                   	nop
  400b45:	90                   	nop
  400b46:	90                   	nop
  400b47:	90                   	nop
  400b48:	90                   	nop
  400b49:	90                   	nop
  400b4a:	90                   	nop
  400b4b:	90                   	nop
  400b4c:	90                   	nop
  400b4d:	90                   	nop
  400b4e:	90                   	nop
  400b4f:	90                   	nop
  400b50:	90                   	nop
  400b51:	90                   	nop
  400b52:	90                   	nop
  400b53:	90                   	nop
  400b54:	90                   	nop
  400b55:	90                   	nop
  400b56:	90                   	nop
  400b57:	90                   	nop
  400b58:	90                   	nop
  400b59:	90                   	nop
  400b5a:	90                   	nop
  400b5b:	90                   	nop
  400b5c:	90                   	nop
  400b5d:	90                   	nop
  400b5e:	90                   	nop
  400b5f:	90                   	nop
  400b60:	90                   	nop
  400b61:	90                   	nop
  400b62:	90                   	nop
  400b63:	90                   	nop
  400b64:	90                   	nop
  400b65:	90                   	nop
  400b66:	90                   	nop
  400b67:	90                   	nop
  400b68:	90                   	nop
  400b69:	90                   	nop
  400b6a:	90                   	nop
  400b6b:	90                   	nop
  400b6c:	90                   	nop
  400b6d:	90                   	nop
  400b6e:	90                   	nop
  400b6f:	90                   	nop
  400b70:	90                   	nop
  400b71:	90                   	nop
  400b72:	90                   	nop
  400b73:	90                   	nop
  400b74:	90                   	nop
  400b75:	90                   	nop
  400b76:	90                   	nop
  400b77:	90                   	nop
  400b78:	90                   	nop
  400b79:	90                   	nop
  400b7a:	90                   	nop
  400b7b:	90                   	nop
  400b7c:	90                   	nop
  400b7d:	90                   	nop
  400b7e:	90                   	nop
  400b7f:	90                   	nop
  400b80:	90                   	nop
  400b81:	90                   	nop
  400b82:	90                   	nop
  400b83:	90                   	nop
  400b84:	90                   	nop
  400b85:	90                   	nop
  400b86:	90                   	nop
  400b87:	90                   	nop
  400b88:	90                   	nop
  400b89:	90                   	nop
  400b8a:	90                   	nop
  400b8b:	90                   	nop
  400b8c:	90                   	nop
  400b8d:	90                   	nop
  400b8e:	90                   	nop
  400b8f:	90                   	nop
  400b90:	90                   	nop
  400b91:	90                   	nop
  400b92:	90                   	nop
  400b93:	90                   	nop
  400b94:	90                   	nop
  400b95:	90                   	nop
  400b96:	90                   	nop
  400b97:	90                   	nop
  400b98:	90                   	nop
  400b99:	90                   	nop
  400b9a:	90                   	nop
  400b9b:	c3                   	retq   
  400b9c:	90                   	nop
  400b9d:	90                   	nop
  400b9e:	90                   	nop
  400b9f:	90                   	nop
  400ba0:	90                   	nop
  400ba1:	90                   	nop
  400ba2:	90                   	nop
  400ba3:	90                   	nop
  400ba4:	90                   	nop
  400ba5:	90                   	nop
  400ba6:	90                   	nop
  400ba7:	90                   	nop
  400ba8:	90                   	nop
  400ba9:	90                   	nop
  400baa:	90                   	nop
  400bab:	90                   	nop
  400bac:	90                   	nop
  400bad:	90                   	nop
  400bae:	90                   	nop
  400baf:	90                   	nop
  400bb0:	90                   	nop
  400bb1:	90                   	nop
  400bb2:	90                   	nop
  400bb3:	90                   	nop
  400bb4:	90                   	nop
  400bb5:	90                   	nop
  400bb6:	90                   	nop
  400bb7:	90                   	nop
  400bb8:	90                   	nop
  400bb9:	90                   	nop
  400bba:	90                   	nop
  400bbb:	90                   	nop
  400bbc:	90                   	nop
  400bbd:	90                   	nop
  400bbe:	90                   	nop
  400bbf:	90                   	nop
  400bc0:	90                   	nop
  400bc1:	90                   	nop
  400bc2:	90                   	nop
  400bc3:	90                   	nop
  400bc4:	90                   	nop
  400bc5:	90                   	nop
  400bc6:	90                   	nop
  400bc7:	90                   	nop
  400bc8:	90                   	nop
  400bc9:	90                   	nop
  400bca:	90                   	nop
  400bcb:	90                   	nop
  400bcc:	90                   	nop
  400bcd:	90                   	nop
  400bce:	90                   	nop
  400bcf:	90                   	nop
  400bd0:	90                   	nop
  400bd1:	90                   	nop
  400bd2:	90                   	nop
  400bd3:	90                   	nop
  400bd4:	90                   	nop
  400bd5:	90                   	nop
  400bd6:	90                   	nop
  400bd7:	90                   	nop
  400bd8:	90                   	nop
  400bd9:	90                   	nop
  400bda:	90                   	nop
  400bdb:	90                   	nop
  400bdc:	90                   	nop
  400bdd:	90                   	nop
  400bde:	90                   	nop
  400bdf:	90                   	nop
  400be0:	90                   	nop
  400be1:	90                   	nop
  400be2:	90                   	nop
  400be3:	90                   	nop
  400be4:	90                   	nop
  400be5:	90                   	nop
  400be6:	90                   	nop
  400be7:	90                   	nop
  400be8:	90                   	nop
  400be9:	90                   	nop
  400bea:	90                   	nop
  400beb:	90                   	nop
  400bec:	90                   	nop
  400bed:	90                   	nop
  400bee:	90                   	nop
  400bef:	90                   	nop
  400bf0:	90                   	nop
  400bf1:	90                   	nop
  400bf2:	90                   	nop
  400bf3:	90                   	nop
  400bf4:	90                   	nop
  400bf5:	90                   	nop
  400bf6:	90                   	nop
  400bf7:	90                   	nop
  400bf8:	90                   	nop
  400bf9:	90                   	nop
  400bfa:	90                   	nop
  400bfb:	90                   	nop
  400bfc:	90                   	nop
  400bfd:	90                   	nop
  400bfe:	90                   	nop
  400bff:	90                   	nop
  400c00:	90                   	nop
  400c01:	90                   	nop
  400c02:	90                   	nop
  400c03:	90                   	nop
  400c04:	90                   	nop
  400c05:	90                   	nop
  400c06:	90                   	nop
  400c07:	90                   	nop
  400c08:	90                   	nop
  400c09:	90                   	nop
  400c0a:	90                   	nop
  400c0b:	90                   	nop
  400c0c:	90                   	nop
  400c0d:	90                   	nop
  400c0e:	90                   	nop
  400c0f:	90                   	nop
  400c10:	90                   	nop
  400c11:	90                   	nop
  400c12:	90                   	nop
  400c13:	90                   	nop
  400c14:	90                   	nop
  400c15:	90                   	nop
  400c16:	90                   	nop
  400c17:	90                   	nop
  400c18:	90                   	nop
  400c19:	90                   	nop
  400c1a:	90                   	nop
  400c1b:	90                   	nop
  400c1c:	90                   	nop
  400c1d:	90                   	nop
  400c1e:	90                   	nop
  400c1f:	90                   	nop
  400c20:	90                   	nop
  400c21:	90                   	nop
  400c22:	90                   	nop
  400c23:	90                   	nop
  400c24:	90                   	nop
  400c25:	90                   	nop
  400c26:	90                   	nop
  400c27:	90                   	nop
  400c28:	90                   	nop
  400c29:	90                   	nop
  400c2a:	90                   	nop
  400c2b:	90                   	nop
  400c2c:	90                   	nop
  400c2d:	90                   	nop
  400c2e:	90                   	nop
  400c2f:	90                   	nop
  400c30:	90                   	nop
  400c31:	90                   	nop
  400c32:	90                   	nop
  400c33:	90                   	nop
  400c34:	90                   	nop
  400c35:	90                   	nop
  400c36:	90                   	nop
  400c37:	90                   	nop
  400c38:	90                   	nop
  400c39:	90                   	nop
  400c3a:	90                   	nop
  400c3b:	90                   	nop
  400c3c:	90                   	nop
  400c3d:	90                   	nop
  400c3e:	90                   	nop
  400c3f:	90                   	nop
  400c40:	90                   	nop
  400c41:	90                   	nop
  400c42:	90                   	nop
  400c43:	90                   	nop
  400c44:	90                   	nop
  400c45:	90                   	nop
  400c46:	90                   	nop
  400c47:	90                   	nop
  400c48:	90                   	nop
  400c49:	90                   	nop
  400c4a:	90                   	nop
  400c4b:	90                   	nop
  400c4c:	90                   	nop
  400c4d:	90                   	nop
  400c4e:	90                   	nop
  400c4f:	90                   	nop
  400c50:	90                   	nop
  400c51:	90                   	nop
  400c52:	90                   	nop
  400c53:	90                   	nop
  400c54:	90                   	nop
  400c55:	90                   	nop
  400c56:	90                   	nop
  400c57:	90                   	nop
  400c58:	90                   	nop
  400c59:	90                   	nop
  400c5a:	90                   	nop
  400c5b:	90                   	nop
  400c5c:	90                   	nop
  400c5d:	90                   	nop
  400c5e:	90                   	nop
  400c5f:	90                   	nop
  400c60:	90                   	nop
  400c61:	90                   	nop
  400c62:	90                   	nop
  400c63:	90                   	nop
  400c64:	90                   	nop
  400c65:	90                   	nop
  400c66:	90                   	nop
  400c67:	90                   	nop
  400c68:	c3                   	retq   
  400c69:	90                   	nop
  400c6a:	90                   	nop
  400c6b:	90                   	nop
  400c6c:	90                   	nop
  400c6d:	90                   	nop
  400c6e:	90                   	nop
  400c6f:	90                   	nop
  400c70:	90                   	nop
  400c71:	90                   	nop
  400c72:	90                   	nop
  400c73:	90                   	nop
  400c74:	90                   	nop
  400c75:	90                   	nop
  400c76:	90                   	nop
  400c77:	90                   	nop
  400c78:	90                   	nop
  400c79:	90                   	nop
  400c7a:	90                   	nop
  400c7b:	90                   	nop
  400c7c:	90                   	nop
  400c7d:	90                   	nop
  400c7e:	90                   	nop
  400c7f:	90                   	nop
  400c80:	90                   	nop
  400c81:	90                   	nop
  400c82:	90                   	nop
  400c83:	90                   	nop
  400c84:	90                   	nop
  400c85:	90                   	nop
  400c86:	90                   	nop
  400c87:	90                   	nop
  400c88:	90                   	nop
  400c89:	90                   	nop
  400c8a:	90                   	nop
  400c8b:	90                   	nop
  400c8c:	90                   	nop
  400c8d:	90                   	nop
  400c8e:	90                   	nop
  400c8f:	90                   	nop
  400c90:	90                   	nop
  400c91:	90                   	nop
  400c92:	90                   	nop
  400c93:	90                   	nop
  400c94:	90                   	nop
  400c95:	90                   	nop
  400c96:	90                   	nop
  400c97:	90                   	nop
  400c98:	90                   	nop
  400c99:	90                   	nop
  400c9a:	90                   	nop
  400c9b:	90                   	nop
  400c9c:	90                   	nop
  400c9d:	90                   	nop
  400c9e:	90                   	nop
  400c9f:	90                   	nop
  400ca0:	90                   	nop
  400ca1:	90                   	nop
  400ca2:	90                   	nop
  400ca3:	90                   	nop
  400ca4:	90                   	nop
  400ca5:	90                   	nop
  400ca6:	90                   	nop
  400ca7:	90                   	nop
  400ca8:	90                   	nop
  400ca9:	90                   	nop
  400caa:	90                   	nop
  400cab:	90                   	nop
  400cac:	90                   	nop
  400cad:	90                   	nop
  400cae:	90                   	nop
  400caf:	90                   	nop
  400cb0:	90                   	nop
  400cb1:	90                   	nop
  400cb2:	90                   	nop
  400cb3:	90                   	nop
  400cb4:	90                   	nop
  400cb5:	90                   	nop
  400cb6:	90                   	nop
  400cb7:	90                   	nop
  400cb8:	90                   	nop
  400cb9:	90                   	nop
  400cba:	90                   	nop
  400cbb:	90                   	nop
  400cbc:	90                   	nop
  400cbd:	90                   	nop
  400cbe:	90                   	nop
  400cbf:	90                   	nop
  400cc0:	90                   	nop
  400cc1:	90                   	nop
  400cc2:	90                   	nop
  400cc3:	90                   	nop
  400cc4:	90                   	nop
  400cc5:	90                   	nop
  400cc6:	90                   	nop
  400cc7:	90                   	nop
  400cc8:	90                   	nop
  400cc9:	90                   	nop
  400cca:	90                   	nop
  400ccb:	90                   	nop
  400ccc:	90                   	nop
  400ccd:	90                   	nop
  400cce:	90                   	nop
  400ccf:	90                   	nop
  400cd0:	90                   	nop
  400cd1:	90                   	nop
  400cd2:	90                   	nop
  400cd3:	90                   	nop
  400cd4:	90                   	nop
  400cd5:	90                   	nop
  400cd6:	90                   	nop
  400cd7:	90                   	nop
  400cd8:	90                   	nop
  400cd9:	90                   	nop
  400cda:	90                   	nop
  400cdb:	90                   	nop
  400cdc:	90                   	nop
  400cdd:	90                   	nop
  400cde:	90                   	nop
  400cdf:	90                   	nop
  400ce0:	90                   	nop
  400ce1:	90                   	nop
  400ce2:	90                   	nop
  400ce3:	90                   	nop
  400ce4:	90                   	nop
  400ce5:	90                   	nop
  400ce6:	90                   	nop
  400ce7:	90                   	nop
  400ce8:	90                   	nop
  400ce9:	90                   	nop
  400cea:	90                   	nop
  400ceb:	90                   	nop
  400cec:	90                   	nop
  400ced:	90                   	nop
  400cee:	90                   	nop
  400cef:	90                   	nop
  400cf0:	90                   	nop
  400cf1:	90                   	nop
  400cf2:	90                   	nop
  400cf3:	90                   	nop
  400cf4:	90                   	nop
  400cf5:	90                   	nop
  400cf6:	90                   	nop
  400cf7:	90                   	nop
  400cf8:	90                   	nop
  400cf9:	90                   	nop
  400cfa:	90                   	nop
  400cfb:	90                   	nop
  400cfc:	90                   	nop
  400cfd:	90                   	nop
  400cfe:	90                   	nop
  400cff:	90                   	nop
  400d00:	90                   	nop
  400d01:	90                   	nop
  400d02:	90                   	nop
  400d03:	90                   	nop
  400d04:	90                   	nop
  400d05:	90                   	nop
  400d06:	90                   	nop
  400d07:	90                   	nop
  400d08:	90                   	nop
  400d09:	90                   	nop
  400d0a:	90                   	nop
  400d0b:	90                   	nop
  400d0c:	90                   	nop
  400d0d:	90                   	nop
  400d0e:	90                   	nop
  400d0f:	90                   	nop
  400d10:	90                   	nop
  400d11:	90                   	nop
  400d12:	90                   	nop
  400d13:	90                   	nop
  400d14:	90                   	nop
  400d15:	90                   	nop
  400d16:	90                   	nop
  400d17:	90                   	nop
  400d18:	90                   	nop
  400d19:	90                   	nop
  400d1a:	90                   	nop
  400d1b:	90                   	nop
  400d1c:	90                   	nop
  400d1d:	90                   	nop
  400d1e:	90                   	nop
  400d1f:	90                   	nop
  400d20:	90                   	nop
  400d21:	90                   	nop
  400d22:	90                   	nop
  400d23:	90                   	nop
  400d24:	90                   	nop
  400d25:	90                   	nop
  400d26:	90                   	nop
  400d27:	90                   	nop
  400d28:	90                   	nop
  400d29:	90                   	nop
  400d2a:	90                   	nop
  400d2b:	90                   	nop
  400d2c:	90                   	nop
  400d2d:	90                   	nop
  400d2e:	90                   	nop
  400d2f:	90                   	nop
  400d30:	90                   	nop
  400d31:	90                   	nop
  400d32:	90                   	nop
  400d33:	90                   	nop
  400d34:	90                   	nop
  400d35:	c3                   	retq   
  400d36:	90                   	nop
  400d37:	90                   	nop
  400d38:	90                   	nop
  400d39:	90                   	nop
  400d3a:	90                   	nop
  400d3b:	90                   	nop
  400d3c:	90                   	nop
  400d3d:	90                   	nop
  400d3e:	90                   	nop
  400d3f:	90                   	nop
  400d40:	90                   	nop
  400d41:	90                   	nop
  400d42:	90                   	nop
  400d43:	90                   	nop
  400d44:	90                   	nop
  400d45:	90                   	nop
  400d46:	90                   	nop
  400d47:	90                   	nop
  400d48:	90                   	nop
  400d49:	90                   	nop
  400d4a:	90                   	nop
  400d4b:	90                   	nop
  400d4c:	90                   	nop
  400d4d:	90                   	nop
  400d4e:	90                   	nop
  400d4f:	90                   	nop
  400d50:	90                   	nop
  400d51:	90                   	nop
  400d52:	90                   	nop
  400d53:	90                   	nop
  400d54:	90                   	nop
  400d55:	90                   	nop
  400d56:	90                   	nop
  400d57:	90                   	nop
  400d58:	90                   	nop
  400d59:	90                   	nop
  400d5a:	90                   	nop
  400d5b:	90                   	nop
  400d5c:	90                   	nop
  400d5d:	90                   	nop
  400d5e:	90                   	nop
  400d5f:	90                   	nop
  400d60:	90                   	nop
  400d61:	90                   	nop
  400d62:	90                   	nop
  400d63:	90                   	nop
  400d64:	90                   	nop
  400d65:	90                   	nop
  400d66:	90                   	nop
  400d67:	90                   	nop
  400d68:	90                   	nop
  400d69:	90                   	nop
  400d6a:	90                   	nop
  400d6b:	90                   	nop
  400d6c:	90                   	nop
  400d6d:	90                   	nop
  400d6e:	90                   	nop
  400d6f:	90                   	nop
  400d70:	90                   	nop
  400d71:	90                   	nop
  400d72:	90                   	nop
  400d73:	90                   	nop
  400d74:	90                   	nop
  400d75:	90                   	nop
  400d76:	90                   	nop
  400d77:	90                   	nop
  400d78:	90                   	nop
  400d79:	90                   	nop
  400d7a:	90                   	nop
  400d7b:	90                   	nop
  400d7c:	90                   	nop
  400d7d:	90                   	nop
  400d7e:	90                   	nop
  400d7f:	90                   	nop
  400d80:	90                   	nop
  400d81:	90                   	nop
  400d82:	90                   	nop
  400d83:	90                   	nop
  400d84:	90                   	nop
  400d85:	90                   	nop
  400d86:	90                   	nop
  400d87:	90                   	nop
  400d88:	90                   	nop
  400d89:	90                   	nop
  400d8a:	90                   	nop
  400d8b:	90                   	nop
  400d8c:	90                   	nop
  400d8d:	90                   	nop
  400d8e:	90                   	nop
  400d8f:	90                   	nop
  400d90:	90                   	nop
  400d91:	90                   	nop
  400d92:	90                   	nop
  400d93:	90                   	nop
  400d94:	90                   	nop
  400d95:	90                   	nop
  400d96:	90                   	nop
  400d97:	90                   	nop
  400d98:	90                   	nop
  400d99:	90                   	nop
  400d9a:	90                   	nop
  400d9b:	90                   	nop
  400d9c:	90                   	nop
  400d9d:	90                   	nop
  400d9e:	90                   	nop
  400d9f:	90                   	nop
  400da0:	90                   	nop
  400da1:	90                   	nop
  400da2:	90                   	nop
  400da3:	90                   	nop
  400da4:	90                   	nop
  400da5:	90                   	nop
  400da6:	90                   	nop
  400da7:	90                   	nop
  400da8:	90                   	nop
  400da9:	90                   	nop
  400daa:	90                   	nop
  400dab:	90                   	nop
  400dac:	90                   	nop
  400dad:	90                   	nop
  400dae:	90                   	nop
  400daf:	90                   	nop
  400db0:	90                   	nop
  400db1:	90                   	nop
  400db2:	90                   	nop
  400db3:	90                   	nop
  400db4:	90                   	nop
  400db5:	90                   	nop
  400db6:	90                   	nop
  400db7:	90                   	nop
  400db8:	90                   	nop
  400db9:	90                   	nop
  400dba:	90                   	nop
  400dbb:	90                   	nop
  400dbc:	90                   	nop
  400dbd:	90                   	nop
  400dbe:	90                   	nop
  400dbf:	90                   	nop
  400dc0:	90                   	nop
  400dc1:	90                   	nop
  400dc2:	90                   	nop
  400dc3:	90                   	nop
  400dc4:	90                   	nop
  400dc5:	90                   	nop
  400dc6:	90                   	nop
  400dc7:	90                   	nop
  400dc8:	90                   	nop
  400dc9:	90                   	nop
  400dca:	90                   	nop
  400dcb:	90                   	nop
  400dcc:	90                   	nop
  400dcd:	90                   	nop
  400dce:	90                   	nop
  400dcf:	90                   	nop
  400dd0:	90                   	nop
  400dd1:	90                   	nop
  400dd2:	90                   	nop
  400dd3:	90                   	nop
  400dd4:	90                   	nop
  400dd5:	90                   	nop
  400dd6:	90                   	nop
  400dd7:	90                   	nop
  400dd8:	90                   	nop
  400dd9:	90                   	nop
  400dda:	90                   	nop
  400ddb:	90                   	nop
  400ddc:	90                   	nop
  400ddd:	90                   	nop
  400dde:	90                   	nop
  400ddf:	90                   	nop
  400de0:	90                   	nop
  400de1:	90                   	nop
  400de2:	90                   	nop
  400de3:	90                   	nop
  400de4:	90                   	nop
  400de5:	90                   	nop
  400de6:	90                   	nop
  400de7:	90                   	nop
  400de8:	90                   	nop
  400de9:	90                   	nop
  400dea:	90                   	nop
  400deb:	90                   	nop
  400dec:	90                   	nop
  400ded:	90                   	nop
  400dee:	90                   	nop
  400def:	90                   	nop
  400df0:	90                   	nop
  400df1:	90                   	nop
  400df2:	90                   	nop
  400df3:	90                   	nop
  400df4:	90                   	nop
  400df5:	90                   	nop
  400df6:	90                   	nop
  400df7:	90                   	nop
  400df8:	90                   	nop
  400df9:	90                   	nop
  400dfa:	90                   	nop
  400dfb:	90                   	nop
  400dfc:	90                   	nop
  400dfd:	90                   	nop
  400dfe:	90                   	nop
  400dff:	90                   	nop
  400e00:	90                   	nop
  400e01:	90                   	nop
  400e02:	c3                   	retq   
  400e03:	90                   	nop
  400e04:	90                   	nop
  400e05:	90                   	nop
  400e06:	90                   	nop
  400e07:	90                   	nop
  400e08:	90                   	nop
  400e09:	90                   	nop
  400e0a:	90                   	nop
  400e0b:	90                   	nop
  400e0c:	90                   	nop
  400e0d:	90                   	nop
  400e0e:	90                   	nop
  400e0f:	90                   	nop
  400e10:	90                   	nop
  400e11:	90                   	nop
  400e12:	90                   	nop
  400e13:	90                   	nop
  400e14:	90                   	nop
  400e15:	90                   	nop
  400e16:	90                   	nop
  400e17:	90                   	nop
  400e18:	90                   	nop
  400e19:	90                   	nop
  400e1a:	90                   	nop
  400e1b:	90                   	nop
  400e1c:	90                   	nop
  400e1d:	90                   	nop
  400e1e:	90                   	nop
  400e1f:	90                   	nop
  400e20:	90                   	nop
  400e21:	90                   	nop
  400e22:	90                   	nop
  400e23:	90                   	nop
  400e24:	90                   	nop
  400e25:	90                   	nop
  400e26:	90                   	nop
  400e27:	90                   	nop
  400e28:	90                   	nop
  400e29:	90                   	nop
  400e2a:	90                   	nop
  400e2b:	90                   	nop
  400e2c:	90                   	nop
  400e2d:	90                   	nop
  400e2e:	90                   	nop
  400e2f:	90                   	nop
  400e30:	90                   	nop
  400e31:	90                   	nop
  400e32:	90                   	nop
  400e33:	90                   	nop
  400e34:	90                   	nop
  400e35:	90                   	nop
  400e36:	90                   	nop
  400e37:	90                   	nop
  400e38:	90                   	nop
  400e39:	90                   	nop
  400e3a:	90                   	nop
  400e3b:	90                   	nop
  400e3c:	90                   	nop
  400e3d:	90                   	nop
  400e3e:	90                   	nop
  400e3f:	90                   	nop
  400e40:	90                   	nop
  400e41:	90                   	nop
  400e42:	90                   	nop
  400e43:	90                   	nop
  400e44:	90                   	nop
  400e45:	90                   	nop
  400e46:	90                   	nop
  400e47:	90                   	nop
  400e48:	90                   	nop
  400e49:	90                   	nop
  400e4a:	90                   	nop
  400e4b:	90                   	nop
  400e4c:	90                   	nop
  400e4d:	90                   	nop
  400e4e:	90                   	nop
  400e4f:	90                   	nop
  400e50:	90                   	nop
  400e51:	90                   	nop
  400e52:	90                   	nop
  400e53:	90                   	nop
  400e54:	90                   	nop
  400e55:	90                   	nop
  400e56:	90                   	nop
  400e57:	90                   	nop
  400e58:	90                   	nop
  400e59:	90                   	nop
  400e5a:	90                   	nop
  400e5b:	90                   	nop
  400e5c:	90                   	nop
  400e5d:	90                   	nop
  400e5e:	90                   	nop
  400e5f:	90                   	nop
  400e60:	90                   	nop
  400e61:	90                   	nop
  400e62:	90                   	nop
  400e63:	90                   	nop
  400e64:	90                   	nop
  400e65:	90                   	nop
  400e66:	90                   	nop
  400e67:	90                   	nop
  400e68:	90                   	nop
  400e69:	90                   	nop
  400e6a:	90                   	nop
  400e6b:	90                   	nop
  400e6c:	90                   	nop
  400e6d:	90                   	nop
  400e6e:	90                   	nop
  400e6f:	90                   	nop
  400e70:	90                   	nop
  400e71:	90                   	nop
  400e72:	90                   	nop
  400e73:	90                   	nop
  400e74:	90                   	nop
  400e75:	90                   	nop
  400e76:	90                   	nop
  400e77:	90                   	nop
  400e78:	90                   	nop
  400e79:	90                   	nop
  400e7a:	90                   	nop
  400e7b:	90                   	nop
  400e7c:	90                   	nop
  400e7d:	90                   	nop
  400e7e:	90                   	nop
  400e7f:	90                   	nop
  400e80:	90                   	nop
  400e81:	90                   	nop
  400e82:	90                   	nop
  400e83:	90                   	nop
  400e84:	90                   	nop
  400e85:	90                   	nop
  400e86:	90                   	nop
  400e87:	90                   	nop
  400e88:	90                   	nop
  400e89:	90                   	nop
  400e8a:	90                   	nop
  400e8b:	90                   	nop
  400e8c:	90                   	nop
  400e8d:	90                   	nop
  400e8e:	90                   	nop
  400e8f:	90                   	nop
  400e90:	90                   	nop
  400e91:	90                   	nop
  400e92:	90                   	nop
  400e93:	90                   	nop
  400e94:	90                   	nop
  400e95:	90                   	nop
  400e96:	90                   	nop
  400e97:	90                   	nop
  400e98:	90                   	nop
  400e99:	90                   	nop
  400e9a:	90                   	nop
  400e9b:	90                   	nop
  400e9c:	90                   	nop
  400e9d:	90                   	nop
  400e9e:	90                   	nop
  400e9f:	90                   	nop
  400ea0:	90                   	nop
  400ea1:	90                   	nop
  400ea2:	90                   	nop
  400ea3:	90                   	nop
  400ea4:	90                   	nop
  400ea5:	90                   	nop
  400ea6:	90                   	nop
  400ea7:	90                   	nop
  400ea8:	90                   	nop
  400ea9:	90                   	nop
  400eaa:	90                   	nop
  400eab:	90                   	nop
  400eac:	90                   	nop
  400ead:	90                   	nop
  400eae:	90                   	nop
  400eaf:	90                   	nop
  400eb0:	90                   	nop
  400eb1:	90                   	nop
  400eb2:	90                   	nop
  400eb3:	90                   	nop
  400eb4:	90                   	nop
  400eb5:	90                   	nop
  400eb6:	90                   	nop
  400eb7:	90                   	nop
  400eb8:	90                   	nop
  400eb9:	90                   	nop
  400eba:	90                   	nop
  400ebb:	90                   	nop
  400ebc:	90                   	nop
  400ebd:	90                   	nop
  400ebe:	90                   	nop
  400ebf:	90                   	nop
  400ec0:	90                   	nop
  400ec1:	90                   	nop
  400ec2:	90                   	nop
  400ec3:	90                   	nop
  400ec4:	90                   	nop
  400ec5:	90                   	nop
  400ec6:	90                   	nop
  400ec7:	90                   	nop
  400ec8:	90                   	nop
  400ec9:	90                   	nop
  400eca:	90                   	nop
  400ecb:	90                   	nop
  400ecc:	90                   	nop
  400ecd:	90                   	nop
  400ece:	90                   	nop
  400ecf:	c3                   	retq   
  400ed0:	90                   	nop
  400ed1:	90                   	nop
  400ed2:	90                   	nop
  400ed3:	90                   	nop
  400ed4:	90                   	nop
  400ed5:	90                   	nop
  400ed6:	90                   	nop
  400ed7:	90                   	nop
  400ed8:	90                   	nop
  400ed9:	90                   	nop
  400eda:	90                   	nop
  400edb:	90                   	nop
  400edc:	90                   	nop
  400edd:	90                   	nop
  400ede:	90                   	nop
  400edf:	90                   	nop
  400ee0:	90                   	nop
  400ee1:	90                   	nop
  400ee2:	90                   	nop
  400ee3:	90                   	nop
  400ee4:	90                   	nop
  400ee5:	90                   	nop
  400ee6:	90                   	nop
  400ee7:	90                   	nop
  400ee8:	90                   	nop
  400ee9:	90                   	nop
  400eea:	90                   	nop
  400eeb:	90                   	nop
  400eec:	90                   	nop
  400eed:	90                   	nop
  400eee:	90                   	nop
  400eef:	90                   	nop
  400ef0:	90                   	nop
  400ef1:	90                   	nop
  400ef2:	90                   	nop
  400ef3:	90                   	nop
  400ef4:	90                   	nop
  400ef5:	90                   	nop
  400ef6:	90                   	nop
  400ef7:	90                   	nop
  400ef8:	90                   	nop
  400ef9:	90                   	nop
  400efa:	90                   	nop
  400efb:	90                   	nop
  400efc:	90                   	nop
  400efd:	90                   	nop
  400efe:	90                   	nop
  400eff:	90                   	nop
  400f00:	90                   	nop
  400f01:	90                   	nop
  400f02:	90                   	nop
  400f03:	90                   	nop
  400f04:	90                   	nop
  400f05:	90                   	nop
  400f06:	90                   	nop
  400f07:	90                   	nop
  400f08:	90                   	nop
  400f09:	90                   	nop
  400f0a:	90                   	nop
  400f0b:	90                   	nop
  400f0c:	90                   	nop
  400f0d:	90                   	nop
  400f0e:	90                   	nop
  400f0f:	90                   	nop
  400f10:	90                   	nop
  400f11:	90                   	nop
  400f12:	90                   	nop
  400f13:	90                   	nop
  400f14:	90                   	nop
  400f15:	90                   	nop
  400f16:	90                   	nop
  400f17:	90                   	nop
  400f18:	90                   	nop
  400f19:	90                   	nop
  400f1a:	90                   	nop
  400f1b:	90                   	nop
  400f1c:	90                   	nop
  400f1d:	90                   	nop
  400f1e:	90                   	nop
  400f1f:	90                   	nop
  400f20:	90                   	nop
  400f21:	90                   	nop
  400f22:	90                   	nop
  400f23:	90                   	nop
  400f24:	90                   	nop
  400f25:	90                   	nop
  400f26:	90                   	nop
  400f27:	90                   	nop
  400f28:	90                   	nop
  400f29:	90                   	nop
  400f2a:	90                   	nop
  400f2b:	90                   	nop
  400f2c:	90                   	nop
  400f2d:	90                   	nop
  400f2e:	90                   	nop
  400f2f:	90                   	nop
  400f30:	90                   	nop
  400f31:	90                   	nop
  400f32:	90                   	nop
  400f33:	90                   	nop
  400f34:	90                   	nop
  400f35:	90                   	nop
  400f36:	90                   	nop
  400f37:	90                   	nop
  400f38:	90                   	nop
  400f39:	90                   	nop
  400f3a:	90                   	nop
  400f3b:	90                   	nop
  400f3c:	90                   	nop
  400f3d:	90                   	nop
  400f3e:	90                   	nop
  400f3f:	90                   	nop
  400f40:	90                   	nop
  400f41:	90                   	nop
  400f42:	90                   	nop
  400f43:	90                   	nop
  400f44:	90                   	nop
  400f45:	90                   	nop
  400f46:	90                   	nop
  400f47:	90                   	nop
  400f48:	90                   	nop
  400f49:	90                   	nop
  400f4a:	90                   	nop
  400f4b:	90                   	nop
  400f4c:	90                   	nop
  400f4d:	90                   	nop
  400f4e:	90                   	nop
  400f4f:	90                   	nop
  400f50:	90                   	nop
  400f51:	90                   	nop
  400f52:	90                   	nop
  400f53:	90                   	nop
  400f54:	90                   	nop
  400f55:	90                   	nop
  400f56:	90                   	nop
  400f57:	90                   	nop
  400f58:	90                   	nop
  400f59:	90                   	nop
  400f5a:	90                   	nop
  400f5b:	90                   	nop
  400f5c:	90                   	nop
  400f5d:	90                   	nop
  400f5e:	90                   	nop
  400f5f:	90                   	nop
  400f60:	90                   	nop
  400f61:	90                   	nop
  400f62:	90                   	nop
  400f63:	90                   	nop
  400f64:	90                   	nop
  400f65:	90                   	nop
  400f66:	90                   	nop
  400f67:	90                   	nop
  400f68:	90                   	nop
  400f69:	90                   	nop
  400f6a:	90                   	nop
  400f6b:	90                   	nop
  400f6c:	90                   	nop
  400f6d:	90                   	nop
  400f6e:	90                   	nop
  400f6f:	90                   	nop
  400f70:	90                   	nop
  400f71:	90                   	nop
  400f72:	90                   	nop
  400f73:	90                   	nop
  400f74:	90                   	nop
  400f75:	90                   	nop
  400f76:	90                   	nop
  400f77:	90                   	nop
  400f78:	90                   	nop
  400f79:	90                   	nop
  400f7a:	90                   	nop
  400f7b:	90                   	nop
  400f7c:	90                   	nop
  400f7d:	90                   	nop
  400f7e:	90                   	nop
  400f7f:	90                   	nop
  400f80:	90                   	nop
  400f81:	90                   	nop
  400f82:	90                   	nop
  400f83:	90                   	nop
  400f84:	90                   	nop
  400f85:	90                   	nop
  400f86:	90                   	nop
  400f87:	90                   	nop
  400f88:	90                   	nop
  400f89:	90                   	nop
  400f8a:	90                   	nop
  400f8b:	90                   	nop
  400f8c:	90                   	nop
  400f8d:	90                   	nop
  400f8e:	90                   	nop
  400f8f:	90                   	nop
  400f90:	90                   	nop
  400f91:	90                   	nop
  400f92:	90                   	nop
  400f93:	90                   	nop
  400f94:	90                   	nop
  400f95:	90                   	nop
  400f96:	90                   	nop
  400f97:	90                   	nop
  400f98:	90                   	nop
  400f99:	90                   	nop
  400f9a:	90                   	nop
  400f9b:	90                   	nop
  400f9c:	c3                   	retq   
  400f9d:	90                   	nop
  400f9e:	90                   	nop
  400f9f:	90                   	nop
  400fa0:	90                   	nop
  400fa1:	90                   	nop
  400fa2:	90                   	nop
  400fa3:	90                   	nop
  400fa4:	90                   	nop
  400fa5:	90                   	nop
  400fa6:	90                   	nop
  400fa7:	90                   	nop
  400fa8:	90                   	nop
  400fa9:	90                   	nop
  400faa:	90                   	nop
  400fab:	90                   	nop
  400fac:	90                   	nop
  400fad:	90                   	nop
  400fae:	90                   	nop
  400faf:	90                   	nop
  400fb0:	90                   	nop
  400fb1:	90                   	nop
  400fb2:	90                   	nop
  400fb3:	90                   	nop
  400fb4:	90                   	nop
  400fb5:	90                   	nop
  400fb6:	90                   	nop
  400fb7:	90                   	nop
  400fb8:	90                   	nop
  400fb9:	90                   	nop
  400fba:	90                   	nop
  400fbb:	90                   	nop
  400fbc:	90                   	nop
  400fbd:	90                   	nop
  400fbe:	90                   	nop
  400fbf:	90                   	nop
  400fc0:	90                   	nop
  400fc1:	90                   	nop
  400fc2:	90                   	nop
  400fc3:	90                   	nop
  400fc4:	90                   	nop
  400fc5:	90                   	nop
  400fc6:	90                   	nop
  400fc7:	90                   	nop
  400fc8:	90                   	nop
  400fc9:	90                   	nop
  400fca:	90                   	nop
  400fcb:	90                   	nop
  400fcc:	90                   	nop
  400fcd:	90                   	nop
  400fce:	90                   	nop
  400fcf:	90                   	nop
  400fd0:	90                   	nop
  400fd1:	90                   	nop
  400fd2:	90                   	nop
  400fd3:	90                   	nop
  400fd4:	90                   	nop
  400fd5:	90                   	nop
  400fd6:	90                   	nop
  400fd7:	90                   	nop
  400fd8:	90                   	nop
  400fd9:	90                   	nop
  400fda:	90                   	nop
  400fdb:	90                   	nop
  400fdc:	90                   	nop
  400fdd:	90                   	nop
  400fde:	90                   	nop
  400fdf:	90                   	nop
  400fe0:	90                   	nop
  400fe1:	90                   	nop
  400fe2:	90                   	nop
  400fe3:	90                   	nop
  400fe4:	90                   	nop
  400fe5:	90                   	nop
  400fe6:	90                   	nop
  400fe7:	90                   	nop
  400fe8:	90                   	nop
  400fe9:	90                   	nop
  400fea:	90                   	nop
  400feb:	90                   	nop
  400fec:	90                   	nop
  400fed:	90                   	nop
  400fee:	90                   	nop
  400fef:	90                   	nop
  400ff0:	90                   	nop
  400ff1:	90                   	nop
  400ff2:	90                   	nop
  400ff3:	90                   	nop
  400ff4:	90                   	nop
  400ff5:	90                   	nop
  400ff6:	90                   	nop
  400ff7:	90                   	nop
  400ff8:	90                   	nop
  400ff9:	90                   	nop
  400ffa:	90                   	nop
  400ffb:	90                   	nop
  400ffc:	90                   	nop
  400ffd:	90                   	nop
  400ffe:	90                   	nop
  400fff:	90                   	nop
  401000:	90                   	nop
  401001:	90                   	nop
  401002:	90                   	nop
  401003:	90                   	nop
  401004:	90                   	nop
  401005:	90                   	nop
  401006:	90                   	nop
  401007:	90                   	nop
  401008:	90                   	nop
  401009:	90                   	nop
  40100a:	90                   	nop
  40100b:	90                   	nop
  40100c:	90                   	nop
  40100d:	90                   	nop
  40100e:	90                   	nop
  40100f:	90                   	nop
  401010:	90                   	nop
  401011:	90                   	nop
  401012:	90                   	nop
  401013:	90                   	nop
  401014:	90                   	nop
  401015:	90                   	nop
  401016:	90                   	nop
  401017:	90                   	nop
  401018:	90                   	nop
  401019:	90                   	nop
  40101a:	90                   	nop
  40101b:	90                   	nop
  40101c:	90                   	nop
  40101d:	90                   	nop
  40101e:	90                   	nop
  40101f:	90                   	nop
  401020:	90                   	nop
  401021:	90                   	nop
  401022:	90                   	nop
  401023:	90                   	nop
  401024:	90                   	nop
  401025:	90                   	nop
  401026:	90                   	nop
  401027:	90                   	nop
  401028:	90                   	nop
  401029:	90                   	nop
  40102a:	90                   	nop
  40102b:	90                   	nop
  40102c:	90                   	nop
  40102d:	90                   	nop
  40102e:	90                   	nop
  40102f:	90                   	nop
  401030:	90                   	nop
  401031:	90                   	nop
  401032:	90                   	nop
  401033:	90                   	nop
  401034:	90                   	nop
  401035:	90                   	nop
  401036:	90                   	nop
  401037:	90                   	nop
  401038:	90                   	nop
  401039:	90                   	nop
  40103a:	90                   	nop
  40103b:	90                   	nop
  40103c:	90                   	nop
  40103d:	90                   	nop
  40103e:	90                   	nop
  40103f:	90                   	nop
  401040:	90                   	nop
  401041:	90                   	nop
  401042:	90                   	nop
  401043:	90                   	nop
  401044:	90                   	nop
  401045:	90                   	nop
  401046:	90                   	nop
  401047:	90                   	nop
  401048:	90                   	nop
  401049:	90                   	nop
  40104a:	90                   	nop
  40104b:	90                   	nop
  40104c:	90                   	nop
  40104d:	90                   	nop
  40104e:	90                   	nop
  40104f:	90                   	nop
  401050:	90                   	nop
  401051:	90                   	nop
  401052:	90                   	nop
  401053:	90                   	nop
  401054:	90                   	nop
  401055:	90                   	nop
  401056:	90                   	nop
  401057:	90                   	nop
  401058:	90                   	nop
  401059:	90                   	nop
  40105a:	90                   	nop
  40105b:	90                   	nop
  40105c:	90                   	nop
  40105d:	90                   	nop
  40105e:	90                   	nop
  40105f:	90                   	nop
  401060:	90                   	nop
  401061:	90                   	nop
  401062:	90                   	nop
  401063:	90                   	nop
  401064:	90                   	nop
  401065:	90                   	nop
  401066:	90                   	nop
  401067:	90                   	nop
  401068:	90                   	nop
  401069:	c3                   	retq   
  40106a:	90                   	nop
  40106b:	90                   	nop
  40106c:	90                   	nop
  40106d:	90                   	nop
  40106e:	90                   	nop
  40106f:	90                   	nop
  401070:	90                   	nop
  401071:	90                   	nop
  401072:	90                   	nop
  401073:	90                   	nop
  401074:	90                   	nop
  401075:	90                   	nop
  401076:	90                   	nop
  401077:	90                   	nop
  401078:	90                   	nop
  401079:	90                   	nop
  40107a:	90                   	nop
  40107b:	90                   	nop
  40107c:	90                   	nop
  40107d:	90                   	nop
  40107e:	90                   	nop
  40107f:	90                   	nop
  401080:	90                   	nop
  401081:	90                   	nop
  401082:	90                   	nop
  401083:	90                   	nop
  401084:	90                   	nop
  401085:	90                   	nop
  401086:	90                   	nop
  401087:	90                   	nop
  401088:	90                   	nop
  401089:	90                   	nop
  40108a:	90                   	nop
  40108b:	90                   	nop
  40108c:	90                   	nop
  40108d:	90                   	nop
  40108e:	90                   	nop
  40108f:	90                   	nop
  401090:	90                   	nop
  401091:	90                   	nop
  401092:	90                   	nop
  401093:	90                   	nop
  401094:	90                   	nop
  401095:	90                   	nop
  401096:	90                   	nop
  401097:	90                   	nop
  401098:	90                   	nop
  401099:	90                   	nop
  40109a:	90                   	nop
  40109b:	90                   	nop
  40109c:	90                   	nop
  40109d:	90                   	nop
  40109e:	90                   	nop
  40109f:	90                   	nop
  4010a0:	90                   	nop
  4010a1:	90                   	nop
  4010a2:	90                   	nop
  4010a3:	90                   	nop
  4010a4:	90                   	nop
  4010a5:	90                   	nop
  4010a6:	90                   	nop
  4010a7:	90                   	nop
  4010a8:	90                   	nop
  4010a9:	90                   	nop
  4010aa:	90                   	nop
  4010ab:	90                   	nop
  4010ac:	90                   	nop
  4010ad:	90                   	nop
  4010ae:	90                   	nop
  4010af:	90                   	nop
  4010b0:	90                   	nop
  4010b1:	90                   	nop
  4010b2:	90                   	nop
  4010b3:	90                   	nop
  4010b4:	90                   	nop
  4010b5:	90                   	nop
  4010b6:	90                   	nop
  4010b7:	90                   	nop
  4010b8:	90                   	nop
  4010b9:	90                   	nop
  4010ba:	90                   	nop
  4010bb:	90                   	nop
  4010bc:	90                   	nop
  4010bd:	90                   	nop
  4010be:	90                   	nop
  4010bf:	90                   	nop
  4010c0:	90                   	nop
  4010c1:	90                   	nop
  4010c2:	90                   	nop
  4010c3:	90                   	nop
  4010c4:	90                   	nop
  4010c5:	90                   	nop
  4010c6:	90                   	nop
  4010c7:	90                   	nop
  4010c8:	90                   	nop
  4010c9:	90                   	nop
  4010ca:	90                   	nop
  4010cb:	90                   	nop
  4010cc:	90                   	nop
  4010cd:	90                   	nop
  4010ce:	90                   	nop
  4010cf:	90                   	nop
  4010d0:	90                   	nop
  4010d1:	90                   	nop
  4010d2:	90                   	nop
  4010d3:	90                   	nop
  4010d4:	90                   	nop
  4010d5:	90                   	nop
  4010d6:	90                   	nop
  4010d7:	90                   	nop
  4010d8:	90                   	nop
  4010d9:	90                   	nop
  4010da:	90                   	nop
  4010db:	90                   	nop
  4010dc:	90                   	nop
  4010dd:	90                   	nop
  4010de:	90                   	nop
  4010df:	90                   	nop
  4010e0:	90                   	nop
  4010e1:	90                   	nop
  4010e2:	90                   	nop
  4010e3:	90                   	nop
  4010e4:	90                   	nop
  4010e5:	90                   	nop
  4010e6:	90                   	nop
  4010e7:	90                   	nop
  4010e8:	90                   	nop
  4010e9:	90                   	nop
  4010ea:	90                   	nop
  4010eb:	90                   	nop
  4010ec:	90                   	nop
  4010ed:	90                   	nop
  4010ee:	90                   	nop
  4010ef:	90                   	nop
  4010f0:	90                   	nop
  4010f1:	90                   	nop
  4010f2:	90                   	nop
  4010f3:	90                   	nop
  4010f4:	90                   	nop
  4010f5:	90                   	nop
  4010f6:	90                   	nop
  4010f7:	90                   	nop
  4010f8:	90                   	nop
  4010f9:	90                   	nop
  4010fa:	90                   	nop
  4010fb:	90                   	nop
  4010fc:	90                   	nop
  4010fd:	90                   	nop
  4010fe:	90                   	nop
  4010ff:	90                   	nop
  401100:	90                   	nop
  401101:	90                   	nop
  401102:	90                   	nop
  401103:	90                   	nop
  401104:	90                   	nop
  401105:	90                   	nop
  401106:	90                   	nop
  401107:	90                   	nop
  401108:	90                   	nop
  401109:	90                   	nop
  40110a:	90                   	nop
  40110b:	90                   	nop
  40110c:	90                   	nop
  40110d:	90                   	nop
  40110e:	90                   	nop
  40110f:	90                   	nop
  401110:	90                   	nop
  401111:	90                   	nop
  401112:	90                   	nop
  401113:	90                   	nop
  401114:	90                   	nop
  401115:	90                   	nop
  401116:	90                   	nop
  401117:	90                   	nop
  401118:	90                   	nop
  401119:	90                   	nop
  40111a:	90                   	nop
  40111b:	90                   	nop
  40111c:	90                   	nop
  40111d:	90                   	nop
  40111e:	90                   	nop
  40111f:	90                   	nop
  401120:	90                   	nop
  401121:	90                   	nop
  401122:	90                   	nop
  401123:	90                   	nop
  401124:	90                   	nop
  401125:	90                   	nop
  401126:	90                   	nop
  401127:	90                   	nop
  401128:	90                   	nop
  401129:	90                   	nop
  40112a:	90                   	nop
  40112b:	90                   	nop
  40112c:	90                   	nop
  40112d:	90                   	nop
  40112e:	90                   	nop
  40112f:	90                   	nop
  401130:	90                   	nop
  401131:	90                   	nop
  401132:	90                   	nop
  401133:	90                   	nop
  401134:	90                   	nop
  401135:	90                   	nop
  401136:	c3                   	retq   
  401137:	90                   	nop
  401138:	90                   	nop
  401139:	90                   	nop
  40113a:	90                   	nop
  40113b:	90                   	nop
  40113c:	90                   	nop
  40113d:	90                   	nop
  40113e:	90                   	nop
  40113f:	90                   	nop
  401140:	90                   	nop
  401141:	90                   	nop
  401142:	90                   	nop
  401143:	90                   	nop
  401144:	90                   	nop
  401145:	90                   	nop
  401146:	90                   	nop
  401147:	90                   	nop
  401148:	90                   	nop
  401149:	90                   	nop
  40114a:	90                   	nop
  40114b:	90                   	nop
  40114c:	90                   	nop
  40114d:	90                   	nop
  40114e:	90                   	nop
  40114f:	90                   	nop
  401150:	90                   	nop
  401151:	90                   	nop
  401152:	90                   	nop
  401153:	90                   	nop
  401154:	90                   	nop
  401155:	90                   	nop
  401156:	90                   	nop
  401157:	90                   	nop
  401158:	90                   	nop
  401159:	90                   	nop
  40115a:	90                   	nop
  40115b:	90                   	nop
  40115c:	90                   	nop
  40115d:	90                   	nop
  40115e:	90                   	nop
  40115f:	90                   	nop
  401160:	90                   	nop
  401161:	90                   	nop
  401162:	90                   	nop
  401163:	90                   	nop
  401164:	90                   	nop
  401165:	90                   	nop
  401166:	90                   	nop
  401167:	90                   	nop
  401168:	90                   	nop
  401169:	90                   	nop
  40116a:	90                   	nop
  40116b:	90                   	nop
  40116c:	90                   	nop
  40116d:	90                   	nop
  40116e:	90                   	nop
  40116f:	90                   	nop
  401170:	90                   	nop
  401171:	90                   	nop
  401172:	90                   	nop
  401173:	90                   	nop
  401174:	90                   	nop
  401175:	90                   	nop
  401176:	90                   	nop
  401177:	90                   	nop
  401178:	90                   	nop
  401179:	90                   	nop
  40117a:	90                   	nop
  40117b:	90                   	nop
  40117c:	90                   	nop
  40117d:	90                   	nop
  40117e:	90                   	nop
  40117f:	90                   	nop
  401180:	90                   	nop
  401181:	90                   	nop
  401182:	90                   	nop
  401183:	90                   	nop
  401184:	90                   	nop
  401185:	90                   	nop
  401186:	90                   	nop
  401187:	90                   	nop
  401188:	90                   	nop
  401189:	90                   	nop
  40118a:	90                   	nop
  40118b:	90                   	nop
  40118c:	90                   	nop
  40118d:	90                   	nop
  40118e:	90                   	nop
  40118f:	90                   	nop
  401190:	90                   	nop
  401191:	90                   	nop
  401192:	90                   	nop
  401193:	90                   	nop
  401194:	90                   	nop
  401195:	90                   	nop
  401196:	90                   	nop
  401197:	90                   	nop
  401198:	90                   	nop
  401199:	90                   	nop
  40119a:	90                   	nop
  40119b:	90                   	nop
  40119c:	90                   	nop
  40119d:	90                   	nop
  40119e:	90                   	nop
  40119f:	90                   	nop
  4011a0:	90                   	nop
  4011a1:	90                   	nop
  4011a2:	90                   	nop
  4011a3:	90                   	nop
  4011a4:	90                   	nop
  4011a5:	90                   	nop
  4011a6:	90                   	nop
  4011a7:	90                   	nop
  4011a8:	90                   	nop
  4011a9:	90                   	nop
  4011aa:	90                   	nop
  4011ab:	90                   	nop
  4011ac:	90                   	nop
  4011ad:	90                   	nop
  4011ae:	90                   	nop
  4011af:	90                   	nop
  4011b0:	90                   	nop
  4011b1:	90                   	nop
  4011b2:	90                   	nop
  4011b3:	90                   	nop
  4011b4:	90                   	nop
  4011b5:	90                   	nop
  4011b6:	90                   	nop
  4011b7:	90                   	nop
  4011b8:	90                   	nop
  4011b9:	90                   	nop
  4011ba:	90                   	nop
  4011bb:	90                   	nop
  4011bc:	90                   	nop
  4011bd:	90                   	nop
  4011be:	90                   	nop
  4011bf:	90                   	nop
  4011c0:	90                   	nop
  4011c1:	90                   	nop
  4011c2:	90                   	nop
  4011c3:	90                   	nop
  4011c4:	90                   	nop
  4011c5:	90                   	nop
  4011c6:	90                   	nop
  4011c7:	90                   	nop
  4011c8:	90                   	nop
  4011c9:	90                   	nop
  4011ca:	90                   	nop
  4011cb:	90                   	nop
  4011cc:	90                   	nop
  4011cd:	90                   	nop
  4011ce:	90                   	nop
  4011cf:	90                   	nop
  4011d0:	90                   	nop
  4011d1:	90                   	nop
  4011d2:	90                   	nop
  4011d3:	90                   	nop
  4011d4:	90                   	nop
  4011d5:	90                   	nop
  4011d6:	90                   	nop
  4011d7:	90                   	nop
  4011d8:	90                   	nop
  4011d9:	90                   	nop
  4011da:	90                   	nop
  4011db:	90                   	nop
  4011dc:	90                   	nop
  4011dd:	90                   	nop
  4011de:	90                   	nop
  4011df:	90                   	nop
  4011e0:	90                   	nop
  4011e1:	90                   	nop
  4011e2:	90                   	nop
  4011e3:	90                   	nop
  4011e4:	90                   	nop
  4011e5:	90                   	nop
  4011e6:	90                   	nop
  4011e7:	90                   	nop
  4011e8:	90                   	nop
  4011e9:	90                   	nop
  4011ea:	90                   	nop
  4011eb:	90                   	nop
  4011ec:	90                   	nop
  4011ed:	90                   	nop
  4011ee:	90                   	nop
  4011ef:	90                   	nop
  4011f0:	90                   	nop
  4011f1:	90                   	nop
  4011f2:	90                   	nop
  4011f3:	90                   	nop
  4011f4:	90                   	nop
  4011f5:	90                   	nop
  4011f6:	90                   	nop
  4011f7:	90                   	nop
  4011f8:	90                   	nop
  4011f9:	90                   	nop
  4011fa:	90                   	nop
  4011fb:	90                   	nop
  4011fc:	90                   	nop
  4011fd:	90                   	nop
  4011fe:	90                   	nop
  4011ff:	90                   	nop
  401200:	90                   	nop
  401201:	90                   	nop
  401202:	90                   	nop
  401203:	c3                   	retq   
  401204:	90                   	nop
  401205:	90                   	nop
  401206:	90                   	nop
  401207:	90                   	nop
  401208:	90                   	nop
  401209:	90                   	nop
  40120a:	90                   	nop
  40120b:	90                   	nop
  40120c:	90                   	nop
  40120d:	90                   	nop
  40120e:	90                   	nop
  40120f:	90                   	nop
  401210:	90                   	nop
  401211:	90                   	nop
  401212:	90                   	nop
  401213:	90                   	nop
  401214:	90                   	nop
  401215:	90                   	nop
  401216:	90                   	nop
  401217:	90                   	nop
  401218:	90                   	nop
  401219:	90                   	nop
  40121a:	90                   	nop
  40121b:	90                   	nop
  40121c:	90                   	nop
  40121d:	90                   	nop
  40121e:	90                   	nop
  40121f:	90                   	nop
  401220:	90                   	nop
  401221:	90                   	nop
  401222:	90                   	nop
  401223:	90                   	nop
  401224:	90                   	nop
  401225:	90                   	nop
  401226:	90                   	nop
  401227:	90                   	nop
  401228:	90                   	nop
  401229:	90                   	nop
  40122a:	90                   	nop
  40122b:	90                   	nop
  40122c:	90                   	nop
  40122d:	90                   	nop
  40122e:	90                   	nop
  40122f:	90                   	nop
  401230:	90                   	nop
  401231:	90                   	nop
  401232:	90                   	nop
  401233:	90                   	nop
  401234:	90                   	nop
  401235:	90                   	nop
  401236:	90                   	nop
  401237:	90                   	nop
  401238:	90                   	nop
  401239:	90                   	nop
  40123a:	90                   	nop
  40123b:	90                   	nop
  40123c:	90                   	nop
  40123d:	90                   	nop
  40123e:	90                   	nop
  40123f:	90                   	nop
  401240:	90                   	nop
  401241:	90                   	nop
  401242:	90                   	nop
  401243:	90                   	nop
  401244:	90                   	nop
  401245:	90                   	nop
  401246:	90                   	nop
  401247:	90                   	nop
  401248:	90                   	nop
  401249:	90                   	nop
  40124a:	90                   	nop
  40124b:	90                   	nop
  40124c:	90                   	nop
  40124d:	90                   	nop
  40124e:	90                   	nop
  40124f:	90                   	nop
  401250:	90                   	nop
  401251:	90                   	nop
  401252:	90                   	nop
  401253:	90                   	nop
  401254:	90                   	nop
  401255:	90                   	nop
  401256:	90                   	nop
  401257:	90                   	nop
  401258:	90                   	nop
  401259:	90                   	nop
  40125a:	90                   	nop
  40125b:	90                   	nop
  40125c:	90                   	nop
  40125d:	90                   	nop
  40125e:	90                   	nop
  40125f:	90                   	nop
  401260:	90                   	nop
  401261:	90                   	nop
  401262:	90                   	nop
  401263:	90                   	nop
  401264:	90                   	nop
  401265:	90                   	nop
  401266:	90                   	nop
  401267:	90                   	nop
  401268:	90                   	nop
  401269:	90                   	nop
  40126a:	90                   	nop
  40126b:	90                   	nop
  40126c:	90                   	nop
  40126d:	90                   	nop
  40126e:	90                   	nop
  40126f:	90                   	nop
  401270:	90                   	nop
  401271:	90                   	nop
  401272:	90                   	nop
  401273:	90                   	nop
  401274:	90                   	nop
  401275:	90                   	nop
  401276:	90                   	nop
  401277:	90                   	nop
  401278:	90                   	nop
  401279:	90                   	nop
  40127a:	90                   	nop
  40127b:	90                   	nop
  40127c:	90                   	nop
  40127d:	90                   	nop
  40127e:	90                   	nop
  40127f:	90                   	nop
  401280:	90                   	nop
  401281:	90                   	nop
  401282:	90                   	nop
  401283:	90                   	nop
  401284:	90                   	nop
  401285:	90                   	nop
  401286:	90                   	nop
  401287:	90                   	nop
  401288:	90                   	nop
  401289:	90                   	nop
  40128a:	90                   	nop
  40128b:	90                   	nop
  40128c:	90                   	nop
  40128d:	90                   	nop
  40128e:	90                   	nop
  40128f:	90                   	nop
  401290:	90                   	nop
  401291:	90                   	nop
  401292:	90                   	nop
  401293:	90                   	nop
  401294:	90                   	nop
  401295:	90                   	nop
  401296:	90                   	nop
  401297:	90                   	nop
  401298:	90                   	nop
  401299:	90                   	nop
  40129a:	90                   	nop
  40129b:	90                   	nop
  40129c:	90                   	nop
  40129d:	90                   	nop
  40129e:	90                   	nop
  40129f:	90                   	nop
  4012a0:	90                   	nop
  4012a1:	90                   	nop
  4012a2:	90                   	nop
  4012a3:	90                   	nop
  4012a4:	90                   	nop
  4012a5:	90                   	nop
  4012a6:	90                   	nop
  4012a7:	90                   	nop
  4012a8:	90                   	nop
  4012a9:	90                   	nop
  4012aa:	90                   	nop
  4012ab:	90                   	nop
  4012ac:	90                   	nop
  4012ad:	90                   	nop
  4012ae:	90                   	nop
  4012af:	90                   	nop
  4012b0:	90                   	nop
  4012b1:	90                   	nop
  4012b2:	90                   	nop
  4012b3:	90                   	nop
  4012b4:	90                   	nop
  4012b5:	90                   	nop
  4012b6:	90                   	nop
  4012b7:	90                   	nop
  4012b8:	90                   	nop
  4012b9:	90                   	nop
  4012ba:	90                   	nop
  4012bb:	90                   	nop
  4012bc:	90                   	nop
  4012bd:	90                   	nop
  4012be:	90                   	nop
  4012bf:	90                   	nop
  4012c0:	90                   	nop
  4012c1:	90                   	nop
  4012c2:	90                   	nop
  4012c3:	90                   	nop
  4012c4:	90                   	nop
  4012c5:	90                   	nop
  4012c6:	90                   	nop
  4012c7:	90                   	nop
  4012c8:	90                   	nop
  4012c9:	90                   	nop
  4012ca:	90                   	nop
  4012cb:	90                   	nop
  4012cc:	90                   	nop
  4012cd:	90                   	nop
  4012ce:	90                   	nop
  4012cf:	90                   	nop
  4012d0:	c3                   	retq   
  4012d1:	90                   	nop
  4012d2:	90                   	nop
  4012d3:	90                   	nop
  4012d4:	90                   	nop
  4012d5:	90                   	nop
  4012d6:	90                   	nop
  4012d7:	90                   	nop
  4012d8:	90                   	nop
  4012d9:	90                   	nop
  4012da:	90                   	nop
  4012db:	90                   	nop
  4012dc:	90                   	nop
  4012dd:	90                   	nop
  4012de:	90                   	nop
  4012df:	90                   	nop
  4012e0:	90                   	nop
  4012e1:	90                   	nop
  4012e2:	90                   	nop
  4012e3:	90                   	nop
  4012e4:	90                   	nop
  4012e5:	90                   	nop
  4012e6:	90                   	nop
  4012e7:	90                   	nop
  4012e8:	90                   	nop
  4012e9:	90                   	nop
  4012ea:	90                   	nop
  4012eb:	90                   	nop
  4012ec:	90                   	nop
  4012ed:	90                   	nop
  4012ee:	90                   	nop
  4012ef:	90                   	nop
  4012f0:	90                   	nop
  4012f1:	90                   	nop
  4012f2:	90                   	nop
  4012f3:	90                   	nop
  4012f4:	90                   	nop
  4012f5:	90                   	nop
  4012f6:	90                   	nop
  4012f7:	90                   	nop
  4012f8:	90                   	nop
  4012f9:	90                   	nop
  4012fa:	90                   	nop
  4012fb:	90                   	nop
  4012fc:	90                   	nop
  4012fd:	90                   	nop
  4012fe:	90                   	nop
  4012ff:	90                   	nop
  401300:	90                   	nop
  401301:	90                   	nop
  401302:	90                   	nop
  401303:	90                   	nop
  401304:	90                   	nop
  401305:	90                   	nop
  401306:	90                   	nop
  401307:	90                   	nop
  401308:	90                   	nop
  401309:	90                   	nop
  40130a:	90                   	nop
  40130b:	90                   	nop
  40130c:	90                   	nop
  40130d:	90                   	nop
  40130e:	90                   	nop
  40130f:	90                   	nop
  401310:	90                   	nop
  401311:	90                   	nop
  401312:	90                   	nop
  401313:	90                   	nop
  401314:	90                   	nop
  401315:	90                   	nop
  401316:	90                   	nop
  401317:	90                   	nop
  401318:	90                   	nop
  401319:	90                   	nop
  40131a:	90                   	nop
  40131b:	90                   	nop
  40131c:	90                   	nop
  40131d:	90                   	nop
  40131e:	90                   	nop
  40131f:	90                   	nop
  401320:	90                   	nop
  401321:	90                   	nop
  401322:	90                   	nop
  401323:	90                   	nop
  401324:	90                   	nop
  401325:	90                   	nop
  401326:	90                   	nop
  401327:	90                   	nop
  401328:	90                   	nop
  401329:	90                   	nop
  40132a:	90                   	nop
  40132b:	90                   	nop
  40132c:	90                   	nop
  40132d:	90                   	nop
  40132e:	90                   	nop
  40132f:	90                   	nop
  401330:	90                   	nop
  401331:	90                   	nop
  401332:	90                   	nop
  401333:	90                   	nop
  401334:	90                   	nop
  401335:	90                   	nop
  401336:	90                   	nop
  401337:	90                   	nop
  401338:	90                   	nop
  401339:	90                   	nop
  40133a:	90                   	nop
  40133b:	90                   	nop
  40133c:	90                   	nop
  40133d:	90                   	nop
  40133e:	90                   	nop
  40133f:	90                   	nop
  401340:	90                   	nop
  401341:	90                   	nop
  401342:	90                   	nop
  401343:	90                   	nop
  401344:	90                   	nop
  401345:	90                   	nop
  401346:	90                   	nop
  401347:	90                   	nop
  401348:	90                   	nop
  401349:	90                   	nop
  40134a:	90                   	nop
  40134b:	90                   	nop
  40134c:	90                   	nop
  40134d:	90                   	nop
  40134e:	90                   	nop
  40134f:	90                   	nop
  401350:	90                   	nop
  401351:	90                   	nop
  401352:	90                   	nop
  401353:	90                   	nop
  401354:	90                   	nop
  401355:	90                   	nop
  401356:	90                   	nop
  401357:	90                   	nop
  401358:	90                   	nop
  401359:	90                   	nop
  40135a:	90                   	nop
  40135b:	90                   	nop
  40135c:	90                   	nop
  40135d:	90                   	nop
  40135e:	90                   	nop
  40135f:	90                   	nop
  401360:	90                   	nop
  401361:	90                   	nop
  401362:	90                   	nop
  401363:	90                   	nop
  401364:	90                   	nop
  401365:	90                   	nop
  401366:	90                   	nop
  401367:	90                   	nop
  401368:	90                   	nop
  401369:	90                   	nop
  40136a:	90                   	nop
  40136b:	90                   	nop
  40136c:	90                   	nop
  40136d:	90                   	nop
  40136e:	90                   	nop
  40136f:	90                   	nop
  401370:	90                   	nop
  401371:	90                   	nop
  401372:	90                   	nop
  401373:	90                   	nop
  401374:	90                   	nop
  401375:	90                   	nop
  401376:	90                   	nop
  401377:	90                   	nop
  401378:	90                   	nop
  401379:	90                   	nop
  40137a:	90                   	nop
  40137b:	90                   	nop
  40137c:	90                   	nop
  40137d:	90                   	nop
  40137e:	90                   	nop
  40137f:	90                   	nop
  401380:	90                   	nop
  401381:	90                   	nop
  401382:	90                   	nop
  401383:	90                   	nop
  401384:	90                   	nop
  401385:	90                   	nop
  401386:	90                   	nop
  401387:	90                   	nop
  401388:	90                   	nop
  401389:	90                   	nop
  40138a:	90                   	nop
  40138b:	90                   	nop
  40138c:	90                   	nop
  40138d:	90                   	nop
  40138e:	90                   	nop
  40138f:	90                   	nop
  401390:	90                   	nop
  401391:	90                   	nop
  401392:	90                   	nop
  401393:	90                   	nop
  401394:	90                   	nop
  401395:	90                   	nop
  401396:	90                   	nop
  401397:	90                   	nop
  401398:	90                   	nop
  401399:	90                   	nop
  40139a:	90                   	nop
  40139b:	90                   	nop
  40139c:	90                   	nop
  40139d:	c3                   	retq   
  40139e:	90                   	nop
  40139f:	90                   	nop
  4013a0:	90                   	nop
  4013a1:	90                   	nop
  4013a2:	90                   	nop
  4013a3:	90                   	nop
  4013a4:	90                   	nop
  4013a5:	90                   	nop
  4013a6:	90                   	nop
  4013a7:	90                   	nop
  4013a8:	90                   	nop
  4013a9:	90                   	nop
  4013aa:	90                   	nop
  4013ab:	90                   	nop
  4013ac:	90                   	nop
  4013ad:	90                   	nop
  4013ae:	90                   	nop
  4013af:	90                   	nop
  4013b0:	90                   	nop
  4013b1:	90                   	nop
  4013b2:	90                   	nop
  4013b3:	90                   	nop
  4013b4:	90                   	nop
  4013b5:	90                   	nop
  4013b6:	90                   	nop
  4013b7:	90                   	nop
  4013b8:	90                   	nop
  4013b9:	90                   	nop
  4013ba:	90                   	nop
  4013bb:	90                   	nop
  4013bc:	90                   	nop
  4013bd:	90                   	nop
  4013be:	90                   	nop
  4013bf:	90                   	nop
  4013c0:	90                   	nop
  4013c1:	90                   	nop
  4013c2:	90                   	nop
  4013c3:	90                   	nop
  4013c4:	90                   	nop
  4013c5:	90                   	nop
  4013c6:	90                   	nop
  4013c7:	90                   	nop
  4013c8:	90                   	nop
  4013c9:	90                   	nop
  4013ca:	90                   	nop
  4013cb:	90                   	nop
  4013cc:	90                   	nop
  4013cd:	90                   	nop
  4013ce:	90                   	nop
  4013cf:	90                   	nop
  4013d0:	90                   	nop
  4013d1:	90                   	nop
  4013d2:	90                   	nop
  4013d3:	90                   	nop
  4013d4:	90                   	nop
  4013d5:	90                   	nop
  4013d6:	90                   	nop
  4013d7:	90                   	nop
  4013d8:	90                   	nop
  4013d9:	90                   	nop
  4013da:	90                   	nop
  4013db:	90                   	nop
  4013dc:	90                   	nop
  4013dd:	90                   	nop
  4013de:	90                   	nop
  4013df:	90                   	nop
  4013e0:	90                   	nop
  4013e1:	90                   	nop
  4013e2:	90                   	nop
  4013e3:	90                   	nop
  4013e4:	90                   	nop
  4013e5:	90                   	nop
  4013e6:	90                   	nop
  4013e7:	90                   	nop
  4013e8:	90                   	nop
  4013e9:	90                   	nop
  4013ea:	90                   	nop
  4013eb:	90                   	nop
  4013ec:	90                   	nop
  4013ed:	90                   	nop
  4013ee:	90                   	nop
  4013ef:	90                   	nop
  4013f0:	90                   	nop
  4013f1:	90                   	nop
  4013f2:	90                   	nop
  4013f3:	90                   	nop
  4013f4:	90                   	nop
  4013f5:	90                   	nop
  4013f6:	90                   	nop
  4013f7:	90                   	nop
  4013f8:	90                   	nop
  4013f9:	90                   	nop
  4013fa:	90                   	nop
  4013fb:	90                   	nop
  4013fc:	90                   	nop
  4013fd:	90                   	nop
  4013fe:	90                   	nop
  4013ff:	90                   	nop
  401400:	90                   	nop
  401401:	90                   	nop
  401402:	90                   	nop
  401403:	90                   	nop
  401404:	90                   	nop
  401405:	90                   	nop
  401406:	90                   	nop
  401407:	90                   	nop
  401408:	90                   	nop
  401409:	90                   	nop
  40140a:	90                   	nop
  40140b:	90                   	nop
  40140c:	90                   	nop
  40140d:	90                   	nop
  40140e:	90                   	nop
  40140f:	90                   	nop
  401410:	90                   	nop
  401411:	90                   	nop
  401412:	90                   	nop
  401413:	90                   	nop
  401414:	90                   	nop
  401415:	90                   	nop
  401416:	90                   	nop
  401417:	90                   	nop
  401418:	90                   	nop
  401419:	90                   	nop
  40141a:	90                   	nop
  40141b:	90                   	nop
  40141c:	90                   	nop
  40141d:	90                   	nop
  40141e:	90                   	nop
  40141f:	90                   	nop
  401420:	90                   	nop
  401421:	90                   	nop
  401422:	90                   	nop
  401423:	90                   	nop
  401424:	90                   	nop
  401425:	90                   	nop
  401426:	90                   	nop
  401427:	90                   	nop
  401428:	90                   	nop
  401429:	90                   	nop
  40142a:	90                   	nop
  40142b:	90                   	nop
  40142c:	90                   	nop
  40142d:	90                   	nop
  40142e:	90                   	nop
  40142f:	90                   	nop
  401430:	90                   	nop
  401431:	90                   	nop
  401432:	90                   	nop
  401433:	90                   	nop
  401434:	90                   	nop
  401435:	90                   	nop
  401436:	90                   	nop
  401437:	90                   	nop
  401438:	90                   	nop
  401439:	90                   	nop
  40143a:	90                   	nop
  40143b:	90                   	nop
  40143c:	90                   	nop
  40143d:	90                   	nop
  40143e:	90                   	nop
  40143f:	90                   	nop
  401440:	90                   	nop
  401441:	90                   	nop
  401442:	90                   	nop
  401443:	90                   	nop
  401444:	90                   	nop
  401445:	90                   	nop
  401446:	90                   	nop
  401447:	90                   	nop
  401448:	90                   	nop
  401449:	90                   	nop
  40144a:	90                   	nop
  40144b:	90                   	nop
  40144c:	90                   	nop
  40144d:	90                   	nop
  40144e:	90                   	nop
  40144f:	90                   	nop
  401450:	90                   	nop
  401451:	90                   	nop
  401452:	90                   	nop
  401453:	90                   	nop
  401454:	90                   	nop
  401455:	90                   	nop
  401456:	90                   	nop
  401457:	90                   	nop
  401458:	90                   	nop
  401459:	90                   	nop
  40145a:	90                   	nop
  40145b:	90                   	nop
  40145c:	90                   	nop
  40145d:	90                   	nop
  40145e:	90                   	nop
  40145f:	90                   	nop
  401460:	90                   	nop
  401461:	90                   	nop
  401462:	90                   	nop
  401463:	90                   	nop
  401464:	90                   	nop
  401465:	90                   	nop
  401466:	90                   	nop
  401467:	90                   	nop
  401468:	90                   	nop
  401469:	90                   	nop
  40146a:	c3                   	retq   
  40146b:	90                   	nop
  40146c:	90                   	nop
  40146d:	90                   	nop
  40146e:	90                   	nop
  40146f:	90                   	nop
  401470:	90                   	nop
  401471:	90                   	nop
  401472:	90                   	nop
  401473:	90                   	nop
  401474:	90                   	nop
  401475:	90                   	nop
  401476:	90                   	nop
  401477:	90                   	nop
  401478:	90                   	nop
  401479:	90                   	nop
  40147a:	90                   	nop
  40147b:	90                   	nop
  40147c:	90                   	nop
  40147d:	90                   	nop
  40147e:	90                   	nop
  40147f:	90                   	nop
  401480:	90                   	nop
  401481:	90                   	nop
  401482:	90                   	nop
  401483:	90                   	nop
  401484:	90                   	nop
  401485:	90                   	nop
  401486:	90                   	nop
  401487:	90                   	nop
  401488:	90                   	nop
  401489:	90                   	nop
  40148a:	90                   	nop
  40148b:	90                   	nop
  40148c:	90                   	nop
  40148d:	90                   	nop
  40148e:	90                   	nop
  40148f:	90                   	nop
  401490:	90                   	nop
  401491:	90                   	nop
  401492:	90                   	nop
  401493:	90                   	nop
  401494:	90                   	nop
  401495:	90                   	nop
  401496:	90                   	nop
  401497:	90                   	nop
  401498:	90                   	nop
  401499:	90                   	nop
  40149a:	90                   	nop
  40149b:	90                   	nop
  40149c:	90                   	nop
  40149d:	90                   	nop
  40149e:	90                   	nop
  40149f:	90                   	nop
  4014a0:	90                   	nop
  4014a1:	90                   	nop
  4014a2:	90                   	nop
  4014a3:	90                   	nop
  4014a4:	90                   	nop
  4014a5:	90                   	nop
  4014a6:	90                   	nop
  4014a7:	90                   	nop
  4014a8:	90                   	nop
  4014a9:	90                   	nop
  4014aa:	90                   	nop
  4014ab:	90                   	nop
  4014ac:	90                   	nop
  4014ad:	90                   	nop
  4014ae:	90                   	nop
  4014af:	90                   	nop
  4014b0:	90                   	nop
  4014b1:	90                   	nop
  4014b2:	90                   	nop
  4014b3:	90                   	nop
  4014b4:	90                   	nop
  4014b5:	90                   	nop
  4014b6:	90                   	nop
  4014b7:	90                   	nop
  4014b8:	90                   	nop
  4014b9:	90                   	nop
  4014ba:	90                   	nop
  4014bb:	90                   	nop
  4014bc:	90                   	nop
  4014bd:	90                   	nop
  4014be:	90                   	nop
  4014bf:	90                   	nop
  4014c0:	90                   	nop
  4014c1:	90                   	nop
  4014c2:	90                   	nop
  4014c3:	90                   	nop
  4014c4:	90                   	nop
  4014c5:	90                   	nop
  4014c6:	90                   	nop
  4014c7:	90                   	nop
  4014c8:	90                   	nop
  4014c9:	90                   	nop
  4014ca:	90                   	nop
  4014cb:	90                   	nop
  4014cc:	90                   	nop
  4014cd:	90                   	nop
  4014ce:	90                   	nop
  4014cf:	90                   	nop
  4014d0:	90                   	nop
  4014d1:	90                   	nop
  4014d2:	90                   	nop
  4014d3:	90                   	nop
  4014d4:	90                   	nop
  4014d5:	90                   	nop
  4014d6:	90                   	nop
  4014d7:	90                   	nop
  4014d8:	90                   	nop
  4014d9:	90                   	nop
  4014da:	90                   	nop
  4014db:	90                   	nop
  4014dc:	90                   	nop
  4014dd:	90                   	nop
  4014de:	90                   	nop
  4014df:	90                   	nop
  4014e0:	90                   	nop
  4014e1:	90                   	nop
  4014e2:	90                   	nop
  4014e3:	90                   	nop
  4014e4:	90                   	nop
  4014e5:	90                   	nop
  4014e6:	90                   	nop
  4014e7:	90                   	nop
  4014e8:	90                   	nop
  4014e9:	90                   	nop
  4014ea:	90                   	nop
  4014eb:	90                   	nop
  4014ec:	90                   	nop
  4014ed:	90                   	nop
  4014ee:	90                   	nop
  4014ef:	90                   	nop
  4014f0:	90                   	nop
  4014f1:	90                   	nop
  4014f2:	90                   	nop
  4014f3:	90                   	nop
  4014f4:	90                   	nop
  4014f5:	90                   	nop
  4014f6:	90                   	nop
  4014f7:	90                   	nop
  4014f8:	90                   	nop
  4014f9:	90                   	nop
  4014fa:	90                   	nop
  4014fb:	90                   	nop
  4014fc:	90                   	nop
  4014fd:	90                   	nop
  4014fe:	90                   	nop
  4014ff:	90                   	nop
  401500:	90                   	nop
  401501:	90                   	nop
  401502:	90                   	nop
  401503:	90                   	nop
  401504:	90                   	nop
  401505:	90                   	nop
  401506:	90                   	nop
  401507:	90                   	nop
  401508:	90                   	nop
  401509:	90                   	nop
  40150a:	90                   	nop
  40150b:	90                   	nop
  40150c:	90                   	nop
  40150d:	90                   	nop
  40150e:	90                   	nop
  40150f:	90                   	nop
  401510:	90                   	nop
  401511:	90                   	nop
  401512:	90                   	nop
  401513:	90                   	nop
  401514:	90                   	nop
  401515:	90                   	nop
  401516:	90                   	nop
  401517:	90                   	nop
  401518:	90                   	nop
  401519:	90                   	nop
  40151a:	90                   	nop
  40151b:	90                   	nop
  40151c:	90                   	nop
  40151d:	90                   	nop
  40151e:	90                   	nop
  40151f:	90                   	nop
  401520:	90                   	nop
  401521:	90                   	nop
  401522:	90                   	nop
  401523:	90                   	nop
  401524:	90                   	nop
  401525:	90                   	nop
  401526:	90                   	nop
  401527:	90                   	nop
  401528:	90                   	nop
  401529:	90                   	nop
  40152a:	90                   	nop
  40152b:	90                   	nop
  40152c:	90                   	nop
  40152d:	90                   	nop
  40152e:	90                   	nop
  40152f:	90                   	nop
  401530:	90                   	nop
  401531:	90                   	nop
  401532:	90                   	nop
  401533:	90                   	nop
  401534:	90                   	nop
  401535:	90                   	nop
  401536:	90                   	nop
  401537:	c3                   	retq   
  401538:	90                   	nop
  401539:	90                   	nop
  40153a:	90                   	nop
  40153b:	90                   	nop
  40153c:	90                   	nop
  40153d:	90                   	nop
  40153e:	90                   	nop
  40153f:	90                   	nop
  401540:	90                   	nop
  401541:	90                   	nop
  401542:	90                   	nop
  401543:	90                   	nop
  401544:	90                   	nop
  401545:	90                   	nop
  401546:	90                   	nop
  401547:	90                   	nop
  401548:	90                   	nop
  401549:	90                   	nop
  40154a:	90                   	nop
  40154b:	90                   	nop
  40154c:	90                   	nop
  40154d:	90                   	nop
  40154e:	90                   	nop
  40154f:	90                   	nop
  401550:	90                   	nop
  401551:	90                   	nop
  401552:	90                   	nop
  401553:	90                   	nop
  401554:	90                   	nop
  401555:	90                   	nop
  401556:	90                   	nop
  401557:	90                   	nop
  401558:	90                   	nop
  401559:	90                   	nop
  40155a:	90                   	nop
  40155b:	90                   	nop
  40155c:	90                   	nop
  40155d:	90                   	nop
  40155e:	90                   	nop
  40155f:	90                   	nop
  401560:	90                   	nop
  401561:	90                   	nop
  401562:	90                   	nop
  401563:	90                   	nop
  401564:	90                   	nop
  401565:	90                   	nop
  401566:	90                   	nop
  401567:	90                   	nop
  401568:	90                   	nop
  401569:	90                   	nop
  40156a:	90                   	nop
  40156b:	90                   	nop
  40156c:	90                   	nop
  40156d:	90                   	nop
  40156e:	90                   	nop
  40156f:	90                   	nop
  401570:	90                   	nop
  401571:	90                   	nop
  401572:	90                   	nop
  401573:	90                   	nop
  401574:	90                   	nop
  401575:	90                   	nop
  401576:	90                   	nop
  401577:	90                   	nop
  401578:	90                   	nop
  401579:	90                   	nop
  40157a:	90                   	nop
  40157b:	90                   	nop
  40157c:	90                   	nop
  40157d:	90                   	nop
  40157e:	90                   	nop
  40157f:	90                   	nop
  401580:	90                   	nop
  401581:	90                   	nop
  401582:	90                   	nop
  401583:	90                   	nop
  401584:	90                   	nop
  401585:	90                   	nop
  401586:	90                   	nop
  401587:	90                   	nop
  401588:	90                   	nop
  401589:	90                   	nop
  40158a:	90                   	nop
  40158b:	90                   	nop
  40158c:	90                   	nop
  40158d:	90                   	nop
  40158e:	90                   	nop
  40158f:	90                   	nop
  401590:	90                   	nop
  401591:	90                   	nop
  401592:	90                   	nop
  401593:	90                   	nop
  401594:	90                   	nop
  401595:	90                   	nop
  401596:	90                   	nop
  401597:	90                   	nop
  401598:	90                   	nop
  401599:	90                   	nop
  40159a:	90                   	nop
  40159b:	90                   	nop
  40159c:	90                   	nop
  40159d:	90                   	nop
  40159e:	90                   	nop
  40159f:	90                   	nop
  4015a0:	90                   	nop
  4015a1:	90                   	nop
  4015a2:	90                   	nop
  4015a3:	90                   	nop
  4015a4:	90                   	nop
  4015a5:	90                   	nop
  4015a6:	90                   	nop
  4015a7:	90                   	nop
  4015a8:	90                   	nop
  4015a9:	90                   	nop
  4015aa:	90                   	nop
  4015ab:	90                   	nop
  4015ac:	90                   	nop
  4015ad:	90                   	nop
  4015ae:	90                   	nop
  4015af:	90                   	nop
  4015b0:	90                   	nop
  4015b1:	90                   	nop
  4015b2:	90                   	nop
  4015b3:	90                   	nop
  4015b4:	90                   	nop
  4015b5:	90                   	nop
  4015b6:	90                   	nop
  4015b7:	90                   	nop
  4015b8:	90                   	nop
  4015b9:	90                   	nop
  4015ba:	90                   	nop
  4015bb:	90                   	nop
  4015bc:	90                   	nop
  4015bd:	90                   	nop
  4015be:	90                   	nop
  4015bf:	90                   	nop
  4015c0:	90                   	nop
  4015c1:	90                   	nop
  4015c2:	90                   	nop
  4015c3:	90                   	nop
  4015c4:	90                   	nop
  4015c5:	90                   	nop
  4015c6:	90                   	nop
  4015c7:	90                   	nop
  4015c8:	90                   	nop
  4015c9:	90                   	nop
  4015ca:	90                   	nop
  4015cb:	90                   	nop
  4015cc:	90                   	nop
  4015cd:	90                   	nop
  4015ce:	90                   	nop
  4015cf:	90                   	nop
  4015d0:	90                   	nop
  4015d1:	90                   	nop
  4015d2:	90                   	nop
  4015d3:	90                   	nop
  4015d4:	90                   	nop
  4015d5:	90                   	nop
  4015d6:	90                   	nop
  4015d7:	90                   	nop
  4015d8:	90                   	nop
  4015d9:	90                   	nop
  4015da:	90                   	nop
  4015db:	90                   	nop
  4015dc:	90                   	nop
  4015dd:	90                   	nop
  4015de:	90                   	nop
  4015df:	90                   	nop
  4015e0:	90                   	nop
  4015e1:	90                   	nop
  4015e2:	90                   	nop
  4015e3:	90                   	nop
  4015e4:	90                   	nop
  4015e5:	90                   	nop
  4015e6:	90                   	nop
  4015e7:	90                   	nop
  4015e8:	90                   	nop
  4015e9:	90                   	nop
  4015ea:	90                   	nop
  4015eb:	90                   	nop
  4015ec:	90                   	nop
  4015ed:	90                   	nop
  4015ee:	90                   	nop
  4015ef:	90                   	nop
  4015f0:	90                   	nop
  4015f1:	90                   	nop
  4015f2:	90                   	nop
  4015f3:	90                   	nop
  4015f4:	90                   	nop
  4015f5:	90                   	nop
  4015f6:	90                   	nop
  4015f7:	90                   	nop
  4015f8:	90                   	nop
  4015f9:	90                   	nop
  4015fa:	90                   	nop
  4015fb:	90                   	nop
  4015fc:	90                   	nop
  4015fd:	90                   	nop
  4015fe:	90                   	nop
  4015ff:	90                   	nop
  401600:	90                   	nop
  401601:	90                   	nop
  401602:	90                   	nop
  401603:	90                   	nop
  401604:	48 8d 05 f9 ff ff ff 	lea    -0x7(%rip),%rax        # 0x401604
  40160b:	c6 00 c3             	movb   $0xc3,(%rax)
  40160e:	49 ff c7             	inc    %r15
  401611:	8a 07                	mov    (%rdi),%al
  401613:	48 ff c7             	inc    %rdi
  401616:	3c 0a                	cmp    $0xa,%al
  401618:	0f 84 b2 00 00 00    	je     0x4016d0
  40161e:	2c 30                	sub    $0x30,%al
  401620:	3c 01                	cmp    $0x1,%al
  401622:	75 0e                	jne    0x401632
  401624:	48 c7 c3 fe ff ff ff 	mov    $0xfffffffffffffffe,%rbx
  40162b:	b9 01 00 00 00       	mov    $0x1,%ecx
  401630:	eb 7e                	jmp    0x4016b0
  401632:	3c 02                	cmp    $0x2,%al
  401634:	75 0e                	jne    0x401644
  401636:	48 c7 c3 ff ff ff ff 	mov    $0xffffffffffffffff,%rbx
  40163d:	b9 02 00 00 00       	mov    $0x2,%ecx
  401642:	eb 6c                	jmp    0x4016b0
  401644:	3c 03                	cmp    $0x3,%al
  401646:	75 0c                	jne    0x401654
  401648:	bb 01 00 00 00       	mov    $0x1,%ebx
  40164d:	b9 02 00 00 00       	mov    $0x2,%ecx
  401652:	eb 5c                	jmp    0x4016b0
  401654:	3c 04                	cmp    $0x4,%al
  401656:	75 0c                	jne    0x401664
  401658:	bb 02 00 00 00       	mov    $0x2,%ebx
  40165d:	b9 01 00 00 00       	mov    $0x1,%ecx
  401662:	eb 4c                	jmp    0x4016b0
  401664:	3c 05                	cmp    $0x5,%al
  401666:	75 0e                	jne    0x401676
  401668:	bb 02 00 00 00       	mov    $0x2,%ebx
  40166d:	48 c7 c1 ff ff ff ff 	mov    $0xffffffffffffffff,%rcx
  401674:	eb 3a                	jmp    0x4016b0
  401676:	3c 06                	cmp    $0x6,%al
  401678:	75 0e                	jne    0x401688
  40167a:	bb 01 00 00 00       	mov    $0x1,%ebx
  40167f:	48 c7 c1 fe ff ff ff 	mov    $0xfffffffffffffffe,%rcx
  401686:	eb 28                	jmp    0x4016b0
  401688:	3c 07                	cmp    $0x7,%al
  40168a:	75 10                	jne    0x40169c
  40168c:	48 c7 c3 ff ff ff ff 	mov    $0xffffffffffffffff,%rbx
  401693:	48 c7 c1 fe ff ff ff 	mov    $0xfffffffffffffffe,%rcx
  40169a:	eb 14                	jmp    0x4016b0
  40169c:	3c 08                	cmp    $0x8,%al
  40169e:	75 30                	jne    0x4016d0
  4016a0:	48 c7 c3 fe ff ff ff 	mov    $0xfffffffffffffffe,%rbx
  4016a7:	48 c7 c1 ff ff ff ff 	mov    $0xffffffffffffffff,%rcx
  4016ae:	eb 00                	jmp    0x4016b0
  4016b0:	48 6b db 0c          	imul   $0xc,%rbx,%rbx
  4016b4:	48 01 cb             	add    %rcx,%rbx
  4016b7:	48 69 db cd 00 00 00 	imul   $0xcd,%rbx,%rbx
  4016be:	48 8d 05 f9 ff ff ff 	lea    -0x7(%rip),%rax        # 0x4016be
  4016c5:	48 2d ba 00 00 00    	sub    $0xba,%rax
  4016cb:	48 01 d8             	add    %rbx,%rax
  4016ce:	ff e0                	jmpq   *%rax
  4016d0:	c3                   	retq   
  4016d1:	48 8d 05 f9 ff ff ff 	lea    -0x7(%rip),%rax        # 0x4016d1
  4016d8:	c6 00 c3             	movb   $0xc3,(%rax)
  4016db:	49 ff c7             	inc    %r15
  4016de:	8a 07                	mov    (%rdi),%al
  4016e0:	48 ff c7             	inc    %rdi
  4016e3:	3c 0a                	cmp    $0xa,%al
  4016e5:	0f 84 b2 00 00 00    	je     0x40179d
  4016eb:	2c 30                	sub    $0x30,%al
  4016ed:	3c 01                	cmp    $0x1,%al
  4016ef:	75 0e                	jne    0x4016ff
  4016f1:	48 c7 c3 fe ff ff ff 	mov    $0xfffffffffffffffe,%rbx
  4016f8:	b9 01 00 00 00       	mov    $0x1,%ecx
  4016fd:	eb 7e                	jmp    0x40177d
  4016ff:	3c 02                	cmp    $0x2,%al
  401701:	75 0e                	jne    0x401711
  401703:	48 c7 c3 ff ff ff ff 	mov    $0xffffffffffffffff,%rbx
  40170a:	b9 02 00 00 00       	mov    $0x2,%ecx
  40170f:	eb 6c                	jmp    0x40177d
  401711:	3c 03                	cmp    $0x3,%al
  401713:	75 0c                	jne    0x401721
  401715:	bb 01 00 00 00       	mov    $0x1,%ebx
  40171a:	b9 02 00 00 00       	mov    $0x2,%ecx
  40171f:	eb 5c                	jmp    0x40177d
  401721:	3c 04                	cmp    $0x4,%al
  401723:	75 0c                	jne    0x401731
  401725:	bb 02 00 00 00       	mov    $0x2,%ebx
  40172a:	b9 01 00 00 00       	mov    $0x1,%ecx
  40172f:	eb 4c                	jmp    0x40177d
  401731:	3c 05                	cmp    $0x5,%al
  401733:	75 0e                	jne    0x401743
  401735:	bb 02 00 00 00       	mov    $0x2,%ebx
  40173a:	48 c7 c1 ff ff ff ff 	mov    $0xffffffffffffffff,%rcx
  401741:	eb 3a                	jmp    0x40177d
  401743:	3c 06                	cmp    $0x6,%al
  401745:	75 0e                	jne    0x401755
  401747:	bb 01 00 00 00       	mov    $0x1,%ebx
  40174c:	48 c7 c1 fe ff ff ff 	mov    $0xfffffffffffffffe,%rcx
  401753:	eb 28                	jmp    0x40177d
  401755:	3c 07                	cmp    $0x7,%al
  401757:	75 10                	jne    0x401769
  401759:	48 c7 c3 ff ff ff ff 	mov    $0xffffffffffffffff,%rbx
  401760:	48 c7 c1 fe ff ff ff 	mov    $0xfffffffffffffffe,%rcx
  401767:	eb 14                	jmp    0x40177d
  401769:	3c 08                	cmp    $0x8,%al
  40176b:	75 30                	jne    0x40179d
  40176d:	48 c7 c3 fe ff ff ff 	mov    $0xfffffffffffffffe,%rbx
  401774:	48 c7 c1 ff ff ff ff 	mov    $0xffffffffffffffff,%rcx
  40177b:	eb 00                	jmp    0x40177d
  40177d:	48 6b db 0c          	imul   $0xc,%rbx,%rbx
  401781:	48 01 cb             	add    %rcx,%rbx
  401784:	48 69 db cd 00 00 00 	imul   $0xcd,%rbx,%rbx
  40178b:	48 8d 05 f9 ff ff ff 	lea    -0x7(%rip),%rax        # 0x40178b
  401792:	48 2d ba 00 00 00    	sub    $0xba,%rax
  401798:	48 01 d8             	add    %rbx,%rax
  40179b:	ff e0                	jmpq   *%rax
  40179d:	c3                   	retq   
  40179e:	48 8d 05 f9 ff ff ff 	lea    -0x7(%rip),%rax        # 0x40179e
  4017a5:	c6 00 c3             	movb   $0xc3,(%rax)
  4017a8:	49 ff c7             	inc    %r15
  4017ab:	8a 07                	mov    (%rdi),%al
  4017ad:	48 ff c7             	inc    %rdi
  4017b0:	3c 0a                	cmp    $0xa,%al
  4017b2:	0f 84 b2 00 00 00    	je     0x40186a
  4017b8:	2c 30                	sub    $0x30,%al
  4017ba:	3c 01                	cmp    $0x1,%al
  4017bc:	75 0e                	jne    0x4017cc
  4017be:	48 c7 c3 fe ff ff ff 	mov    $0xfffffffffffffffe,%rbx
  4017c5:	b9 01 00 00 00       	mov    $0x1,%ecx
  4017ca:	eb 7e                	jmp    0x40184a
  4017cc:	3c 02                	cmp    $0x2,%al
  4017ce:	75 0e                	jne    0x4017de
  4017d0:	48 c7 c3 ff ff ff ff 	mov    $0xffffffffffffffff,%rbx
  4017d7:	b9 02 00 00 00       	mov    $0x2,%ecx
  4017dc:	eb 6c                	jmp    0x40184a
  4017de:	3c 03                	cmp    $0x3,%al
  4017e0:	75 0c                	jne    0x4017ee
  4017e2:	bb 01 00 00 00       	mov    $0x1,%ebx
  4017e7:	b9 02 00 00 00       	mov    $0x2,%ecx
  4017ec:	eb 5c                	jmp    0x40184a
  4017ee:	3c 04                	cmp    $0x4,%al
  4017f0:	75 0c                	jne    0x4017fe
  4017f2:	bb 02 00 00 00       	mov    $0x2,%ebx
  4017f7:	b9 01 00 00 00       	mov    $0x1,%ecx
  4017fc:	eb 4c                	jmp    0x40184a
  4017fe:	3c 05                	cmp    $0x5,%al
  401800:	75 0e                	jne    0x401810
  401802:	bb 02 00 00 00       	mov    $0x2,%ebx
  401807:	48 c7 c1 ff ff ff ff 	mov    $0xffffffffffffffff,%rcx
  40180e:	eb 3a                	jmp    0x40184a
  401810:	3c 06                	cmp    $0x6,%al
  401812:	75 0e                	jne    0x401822
  401814:	bb 01 00 00 00       	mov    $0x1,%ebx
  401819:	48 c7 c1 fe ff ff ff 	mov    $0xfffffffffffffffe,%rcx
  401820:	eb 28                	jmp    0x40184a
  401822:	3c 07                	cmp    $0x7,%al
  401824:	75 10                	jne    0x401836
  401826:	48 c7 c3 ff ff ff ff 	mov    $0xffffffffffffffff,%rbx
  40182d:	48 c7 c1 fe ff ff ff 	mov    $0xfffffffffffffffe,%rcx
  401834:	eb 14                	jmp    0x40184a
  401836:	3c 08                	cmp    $0x8,%al
  401838:	75 30                	jne    0x40186a
  40183a:	48 c7 c3 fe ff ff ff 	mov    $0xfffffffffffffffe,%rbx
  401841:	48 c7 c1 ff ff ff ff 	mov    $0xffffffffffffffff,%rcx
  401848:	eb 00                	jmp    0x40184a
  40184a:	48 6b db 0c          	imul   $0xc,%rbx,%rbx
  40184e:	48 01 cb             	add    %rcx,%rbx
  401851:	48 69 db cd 00 00 00 	imul   $0xcd,%rbx,%rbx
  401858:	48 8d 05 f9 ff ff ff 	lea    -0x7(%rip),%rax        # 0x401858
  40185f:	48 2d ba 00 00 00    	sub    $0xba,%rax
  401865:	48 01 d8             	add    %rbx,%rax
  401868:	ff e0                	jmpq   *%rax
  40186a:	c3                   	retq   
  40186b:	48 8d 05 f9 ff ff ff 	lea    -0x7(%rip),%rax        # 0x40186b
  401872:	c6 00 c3             	movb   $0xc3,(%rax)
  401875:	49 ff c7             	inc    %r15
  401878:	8a 07                	mov    (%rdi),%al
  40187a:	48 ff c7             	inc    %rdi
  40187d:	3c 0a                	cmp    $0xa,%al
  40187f:	0f 84 b2 00 00 00    	je     0x401937
  401885:	2c 30                	sub    $0x30,%al
  401887:	3c 01                	cmp    $0x1,%al
  401889:	75 0e                	jne    0x401899
  40188b:	48 c7 c3 fe ff ff ff 	mov    $0xfffffffffffffffe,%rbx
  401892:	b9 01 00 00 00       	mov    $0x1,%ecx
  401897:	eb 7e                	jmp    0x401917
  401899:	3c 02                	cmp    $0x2,%al
  40189b:	75 0e                	jne    0x4018ab
  40189d:	48 c7 c3 ff ff ff ff 	mov    $0xffffffffffffffff,%rbx
  4018a4:	b9 02 00 00 00       	mov    $0x2,%ecx
  4018a9:	eb 6c                	jmp    0x401917
  4018ab:	3c 03                	cmp    $0x3,%al
  4018ad:	75 0c                	jne    0x4018bb
  4018af:	bb 01 00 00 00       	mov    $0x1,%ebx
  4018b4:	b9 02 00 00 00       	mov    $0x2,%ecx
  4018b9:	eb 5c                	jmp    0x401917
  4018bb:	3c 04                	cmp    $0x4,%al
  4018bd:	75 0c                	jne    0x4018cb
  4018bf:	bb 02 00 00 00       	mov    $0x2,%ebx
  4018c4:	b9 01 00 00 00       	mov    $0x1,%ecx
  4018c9:	eb 4c                	jmp    0x401917
  4018cb:	3c 05                	cmp    $0x5,%al
  4018cd:	75 0e                	jne    0x4018dd
  4018cf:	bb 02 00 00 00       	mov    $0x2,%ebx
  4018d4:	48 c7 c1 ff ff ff ff 	mov    $0xffffffffffffffff,%rcx
  4018db:	eb 3a                	jmp    0x401917
  4018dd:	3c 06                	cmp    $0x6,%al
  4018df:	75 0e                	jne    0x4018ef
  4018e1:	bb 01 00 00 00       	mov    $0x1,%ebx
  4018e6:	48 c7 c1 fe ff ff ff 	mov    $0xfffffffffffffffe,%rcx
  4018ed:	eb 28                	jmp    0x401917
  4018ef:	3c 07                	cmp    $0x7,%al
  4018f1:	75 10                	jne    0x401903
  4018f3:	48 c7 c3 ff ff ff ff 	mov    $0xffffffffffffffff,%rbx
  4018fa:	48 c7 c1 fe ff ff ff 	mov    $0xfffffffffffffffe,%rcx
  401901:	eb 14                	jmp    0x401917
  401903:	3c 08                	cmp    $0x8,%al
  401905:	75 30                	jne    0x401937
  401907:	48 c7 c3 fe ff ff ff 	mov    $0xfffffffffffffffe,%rbx
  40190e:	48 c7 c1 ff ff ff ff 	mov    $0xffffffffffffffff,%rcx
  401915:	eb 00                	jmp    0x401917
  401917:	48 6b db 0c          	imul   $0xc,%rbx,%rbx
  40191b:	48 01 cb             	add    %rcx,%rbx
  40191e:	48 69 db cd 00 00 00 	imul   $0xcd,%rbx,%rbx
  401925:	48 8d 05 f9 ff ff ff 	lea    -0x7(%rip),%rax        # 0x401925
  40192c:	48 2d ba 00 00 00    	sub    $0xba,%rax
  401932:	48 01 d8             	add    %rbx,%rax
  401935:	ff e0                	jmpq   *%rax
  401937:	c3                   	retq   
  401938:	48 8d 05 f9 ff ff ff 	lea    -0x7(%rip),%rax        # 0x401938
  40193f:	c6 00 c3             	movb   $0xc3,(%rax)
  401942:	49 ff c7             	inc    %r15
  401945:	8a 07                	mov    (%rdi),%al
  401947:	48 ff c7             	inc    %rdi
  40194a:	3c 0a                	cmp    $0xa,%al
  40194c:	0f 84 b2 00 00 00    	je     0x401a04
  401952:	2c 30                	sub    $0x30,%al
  401954:	3c 01                	cmp    $0x1,%al
  401956:	75 0e                	jne    0x401966
  401958:	48 c7 c3 fe ff ff ff 	mov    $0xfffffffffffffffe,%rbx
  40195f:	b9 01 00 00 00       	mov    $0x1,%ecx
  401964:	eb 7e                	jmp    0x4019e4
  401966:	3c 02                	cmp    $0x2,%al
  401968:	75 0e                	jne    0x401978
  40196a:	48 c7 c3 ff ff ff ff 	mov    $0xffffffffffffffff,%rbx
  401971:	b9 02 00 00 00       	mov    $0x2,%ecx
  401976:	eb 6c                	jmp    0x4019e4
  401978:	3c 03                	cmp    $0x3,%al
  40197a:	75 0c                	jne    0x401988
  40197c:	bb 01 00 00 00       	mov    $0x1,%ebx
  401981:	b9 02 00 00 00       	mov    $0x2,%ecx
  401986:	eb 5c                	jmp    0x4019e4
  401988:	3c 04                	cmp    $0x4,%al
  40198a:	75 0c                	jne    0x401998
  40198c:	bb 02 00 00 00       	mov    $0x2,%ebx
  401991:	b9 01 00 00 00       	mov    $0x1,%ecx
  401996:	eb 4c                	jmp    0x4019e4
  401998:	3c 05                	cmp    $0x5,%al
  40199a:	75 0e                	jne    0x4019aa
  40199c:	bb 02 00 00 00       	mov    $0x2,%ebx
  4019a1:	48 c7 c1 ff ff ff ff 	mov    $0xffffffffffffffff,%rcx
  4019a8:	eb 3a                	jmp    0x4019e4
  4019aa:	3c 06                	cmp    $0x6,%al
  4019ac:	75 0e                	jne    0x4019bc
  4019ae:	bb 01 00 00 00       	mov    $0x1,%ebx
  4019b3:	48 c7 c1 fe ff ff ff 	mov    $0xfffffffffffffffe,%rcx
  4019ba:	eb 28                	jmp    0x4019e4
  4019bc:	3c 07                	cmp    $0x7,%al
  4019be:	75 10                	jne    0x4019d0
  4019c0:	48 c7 c3 ff ff ff ff 	mov    $0xffffffffffffffff,%rbx
  4019c7:	48 c7 c1 fe ff ff ff 	mov    $0xfffffffffffffffe,%rcx
  4019ce:	eb 14                	jmp    0x4019e4
  4019d0:	3c 08                	cmp    $0x8,%al
  4019d2:	75 30                	jne    0x401a04
  4019d4:	48 c7 c3 fe ff ff ff 	mov    $0xfffffffffffffffe,%rbx
  4019db:	48 c7 c1 ff ff ff ff 	mov    $0xffffffffffffffff,%rcx
  4019e2:	eb 00                	jmp    0x4019e4
  4019e4:	48 6b db 0c          	imul   $0xc,%rbx,%rbx
  4019e8:	48 01 cb             	add    %rcx,%rbx
  4019eb:	48 69 db cd 00 00 00 	imul   $0xcd,%rbx,%rbx
  4019f2:	48 8d 05 f9 ff ff ff 	lea    -0x7(%rip),%rax        # 0x4019f2
  4019f9:	48 2d ba 00 00 00    	sub    $0xba,%rax
  4019ff:	48 01 d8             	add    %rbx,%rax
  401a02:	ff e0                	jmpq   *%rax
  401a04:	c3                   	retq   
  401a05:	48 8d 05 f9 ff ff ff 	lea    -0x7(%rip),%rax        # 0x401a05
  401a0c:	c6 00 c3             	movb   $0xc3,(%rax)
  401a0f:	49 ff c7             	inc    %r15
  401a12:	8a 07                	mov    (%rdi),%al
  401a14:	48 ff c7             	inc    %rdi
  401a17:	3c 0a                	cmp    $0xa,%al
  401a19:	0f 84 b2 00 00 00    	je     0x401ad1
  401a1f:	2c 30                	sub    $0x30,%al
  401a21:	3c 01                	cmp    $0x1,%al
  401a23:	75 0e                	jne    0x401a33
  401a25:	48 c7 c3 fe ff ff ff 	mov    $0xfffffffffffffffe,%rbx
  401a2c:	b9 01 00 00 00       	mov    $0x1,%ecx
  401a31:	eb 7e                	jmp    0x401ab1
  401a33:	3c 02                	cmp    $0x2,%al
  401a35:	75 0e                	jne    0x401a45
  401a37:	48 c7 c3 ff ff ff ff 	mov    $0xffffffffffffffff,%rbx
  401a3e:	b9 02 00 00 00       	mov    $0x2,%ecx
  401a43:	eb 6c                	jmp    0x401ab1
  401a45:	3c 03                	cmp    $0x3,%al
  401a47:	75 0c                	jne    0x401a55
  401a49:	bb 01 00 00 00       	mov    $0x1,%ebx
  401a4e:	b9 02 00 00 00       	mov    $0x2,%ecx
  401a53:	eb 5c                	jmp    0x401ab1
  401a55:	3c 04                	cmp    $0x4,%al
  401a57:	75 0c                	jne    0x401a65
  401a59:	bb 02 00 00 00       	mov    $0x2,%ebx
  401a5e:	b9 01 00 00 00       	mov    $0x1,%ecx
  401a63:	eb 4c                	jmp    0x401ab1
  401a65:	3c 05                	cmp    $0x5,%al
  401a67:	75 0e                	jne    0x401a77
  401a69:	bb 02 00 00 00       	mov    $0x2,%ebx
  401a6e:	48 c7 c1 ff ff ff ff 	mov    $0xffffffffffffffff,%rcx
  401a75:	eb 3a                	jmp    0x401ab1
  401a77:	3c 06                	cmp    $0x6,%al
  401a79:	75 0e                	jne    0x401a89
  401a7b:	bb 01 00 00 00       	mov    $0x1,%ebx
  401a80:	48 c7 c1 fe ff ff ff 	mov    $0xfffffffffffffffe,%rcx
  401a87:	eb 28                	jmp    0x401ab1
  401a89:	3c 07                	cmp    $0x7,%al
  401a8b:	75 10                	jne    0x401a9d
  401a8d:	48 c7 c3 ff ff ff ff 	mov    $0xffffffffffffffff,%rbx
  401a94:	48 c7 c1 fe ff ff ff 	mov    $0xfffffffffffffffe,%rcx
  401a9b:	eb 14                	jmp    0x401ab1
  401a9d:	3c 08                	cmp    $0x8,%al
  401a9f:	75 30                	jne    0x401ad1
  401aa1:	48 c7 c3 fe ff ff ff 	mov    $0xfffffffffffffffe,%rbx
  401aa8:	48 c7 c1 ff ff ff ff 	mov    $0xffffffffffffffff,%rcx
  401aaf:	eb 00                	jmp    0x401ab1
  401ab1:	48 6b db 0c          	imul   $0xc,%rbx,%rbx
  401ab5:	48 01 cb             	add    %rcx,%rbx
  401ab8:	48 69 db cd 00 00 00 	imul   $0xcd,%rbx,%rbx
  401abf:	48 8d 05 f9 ff ff ff 	lea    -0x7(%rip),%rax        # 0x401abf
  401ac6:	48 2d ba 00 00 00    	sub    $0xba,%rax
  401acc:	48 01 d8             	add    %rbx,%rax
  401acf:	ff e0                	jmpq   *%rax
  401ad1:	c3                   	retq   
  401ad2:	48 8d 05 f9 ff ff ff 	lea    -0x7(%rip),%rax        # 0x401ad2
  401ad9:	c6 00 c3             	movb   $0xc3,(%rax)
  401adc:	49 ff c7             	inc    %r15
  401adf:	8a 07                	mov    (%rdi),%al
  401ae1:	48 ff c7             	inc    %rdi
  401ae4:	3c 0a                	cmp    $0xa,%al
  401ae6:	0f 84 b2 00 00 00    	je     0x401b9e
  401aec:	2c 30                	sub    $0x30,%al
  401aee:	3c 01                	cmp    $0x1,%al
  401af0:	75 0e                	jne    0x401b00
  401af2:	48 c7 c3 fe ff ff ff 	mov    $0xfffffffffffffffe,%rbx
  401af9:	b9 01 00 00 00       	mov    $0x1,%ecx
  401afe:	eb 7e                	jmp    0x401b7e
  401b00:	3c 02                	cmp    $0x2,%al
  401b02:	75 0e                	jne    0x401b12
  401b04:	48 c7 c3 ff ff ff ff 	mov    $0xffffffffffffffff,%rbx
  401b0b:	b9 02 00 00 00       	mov    $0x2,%ecx
  401b10:	eb 6c                	jmp    0x401b7e
  401b12:	3c 03                	cmp    $0x3,%al
  401b14:	75 0c                	jne    0x401b22
  401b16:	bb 01 00 00 00       	mov    $0x1,%ebx
  401b1b:	b9 02 00 00 00       	mov    $0x2,%ecx
  401b20:	eb 5c                	jmp    0x401b7e
  401b22:	3c 04                	cmp    $0x4,%al
  401b24:	75 0c                	jne    0x401b32
  401b26:	bb 02 00 00 00       	mov    $0x2,%ebx
  401b2b:	b9 01 00 00 00       	mov    $0x1,%ecx
  401b30:	eb 4c                	jmp    0x401b7e
  401b32:	3c 05                	cmp    $0x5,%al
  401b34:	75 0e                	jne    0x401b44
  401b36:	bb 02 00 00 00       	mov    $0x2,%ebx
  401b3b:	48 c7 c1 ff ff ff ff 	mov    $0xffffffffffffffff,%rcx
  401b42:	eb 3a                	jmp    0x401b7e
  401b44:	3c 06                	cmp    $0x6,%al
  401b46:	75 0e                	jne    0x401b56
  401b48:	bb 01 00 00 00       	mov    $0x1,%ebx
  401b4d:	48 c7 c1 fe ff ff ff 	mov    $0xfffffffffffffffe,%rcx
  401b54:	eb 28                	jmp    0x401b7e
  401b56:	3c 07                	cmp    $0x7,%al
  401b58:	75 10                	jne    0x401b6a
  401b5a:	48 c7 c3 ff ff ff ff 	mov    $0xffffffffffffffff,%rbx
  401b61:	48 c7 c1 fe ff ff ff 	mov    $0xfffffffffffffffe,%rcx
  401b68:	eb 14                	jmp    0x401b7e
  401b6a:	3c 08                	cmp    $0x8,%al
  401b6c:	75 30                	jne    0x401b9e
  401b6e:	48 c7 c3 fe ff ff ff 	mov    $0xfffffffffffffffe,%rbx
  401b75:	48 c7 c1 ff ff ff ff 	mov    $0xffffffffffffffff,%rcx
  401b7c:	eb 00                	jmp    0x401b7e
  401b7e:	48 6b db 0c          	imul   $0xc,%rbx,%rbx
  401b82:	48 01 cb             	add    %rcx,%rbx
  401b85:	48 69 db cd 00 00 00 	imul   $0xcd,%rbx,%rbx
  401b8c:	48 8d 05 f9 ff ff ff 	lea    -0x7(%rip),%rax        # 0x401b8c
  401b93:	48 2d ba 00 00 00    	sub    $0xba,%rax
  401b99:	48 01 d8             	add    %rbx,%rax
  401b9c:	ff e0                	jmpq   *%rax
  401b9e:	c3                   	retq   
  401b9f:	48 8d 05 f9 ff ff ff 	lea    -0x7(%rip),%rax        # 0x401b9f
  401ba6:	c6 00 c3             	movb   $0xc3,(%rax)
  401ba9:	49 ff c7             	inc    %r15
  401bac:	8a 07                	mov    (%rdi),%al
  401bae:	48 ff c7             	inc    %rdi
  401bb1:	3c 0a                	cmp    $0xa,%al
  401bb3:	0f 84 b2 00 00 00    	je     0x401c6b
  401bb9:	2c 30                	sub    $0x30,%al
  401bbb:	3c 01                	cmp    $0x1,%al
  401bbd:	75 0e                	jne    0x401bcd
  401bbf:	48 c7 c3 fe ff ff ff 	mov    $0xfffffffffffffffe,%rbx
  401bc6:	b9 01 00 00 00       	mov    $0x1,%ecx
  401bcb:	eb 7e                	jmp    0x401c4b
  401bcd:	3c 02                	cmp    $0x2,%al
  401bcf:	75 0e                	jne    0x401bdf
  401bd1:	48 c7 c3 ff ff ff ff 	mov    $0xffffffffffffffff,%rbx
  401bd8:	b9 02 00 00 00       	mov    $0x2,%ecx
  401bdd:	eb 6c                	jmp    0x401c4b
  401bdf:	3c 03                	cmp    $0x3,%al
  401be1:	75 0c                	jne    0x401bef
  401be3:	bb 01 00 00 00       	mov    $0x1,%ebx
  401be8:	b9 02 00 00 00       	mov    $0x2,%ecx
  401bed:	eb 5c                	jmp    0x401c4b
  401bef:	3c 04                	cmp    $0x4,%al
  401bf1:	75 0c                	jne    0x401bff
  401bf3:	bb 02 00 00 00       	mov    $0x2,%ebx
  401bf8:	b9 01 00 00 00       	mov    $0x1,%ecx
  401bfd:	eb 4c                	jmp    0x401c4b
  401bff:	3c 05                	cmp    $0x5,%al
  401c01:	75 0e                	jne    0x401c11
  401c03:	bb 02 00 00 00       	mov    $0x2,%ebx
  401c08:	48 c7 c1 ff ff ff ff 	mov    $0xffffffffffffffff,%rcx
  401c0f:	eb 3a                	jmp    0x401c4b
  401c11:	3c 06                	cmp    $0x6,%al
  401c13:	75 0e                	jne    0x401c23
  401c15:	bb 01 00 00 00       	mov    $0x1,%ebx
  401c1a:	48 c7 c1 fe ff ff ff 	mov    $0xfffffffffffffffe,%rcx
  401c21:	eb 28                	jmp    0x401c4b
  401c23:	3c 07                	cmp    $0x7,%al
  401c25:	75 10                	jne    0x401c37
  401c27:	48 c7 c3 ff ff ff ff 	mov    $0xffffffffffffffff,%rbx
  401c2e:	48 c7 c1 fe ff ff ff 	mov    $0xfffffffffffffffe,%rcx
  401c35:	eb 14                	jmp    0x401c4b
  401c37:	3c 08                	cmp    $0x8,%al
  401c39:	75 30                	jne    0x401c6b
  401c3b:	48 c7 c3 fe ff ff ff 	mov    $0xfffffffffffffffe,%rbx
  401c42:	48 c7 c1 ff ff ff ff 	mov    $0xffffffffffffffff,%rcx
  401c49:	eb 00                	jmp    0x401c4b
  401c4b:	48 6b db 0c          	imul   $0xc,%rbx,%rbx
  401c4f:	48 01 cb             	add    %rcx,%rbx
  401c52:	48 69 db cd 00 00 00 	imul   $0xcd,%rbx,%rbx
  401c59:	48 8d 05 f9 ff ff ff 	lea    -0x7(%rip),%rax        # 0x401c59
  401c60:	48 2d ba 00 00 00    	sub    $0xba,%rax
  401c66:	48 01 d8             	add    %rbx,%rax
  401c69:	ff e0                	jmpq   *%rax
  401c6b:	c3                   	retq   
  401c6c:	c3                   	retq   
  401c6d:	90                   	nop
  401c6e:	90                   	nop
  401c6f:	90                   	nop
  401c70:	90                   	nop
  401c71:	90                   	nop
  401c72:	90                   	nop
  401c73:	90                   	nop
  401c74:	90                   	nop
  401c75:	90                   	nop
  401c76:	90                   	nop
  401c77:	90                   	nop
  401c78:	90                   	nop
  401c79:	90                   	nop
  401c7a:	90                   	nop
  401c7b:	90                   	nop
  401c7c:	90                   	nop
  401c7d:	90                   	nop
  401c7e:	90                   	nop
  401c7f:	90                   	nop
  401c80:	90                   	nop
  401c81:	90                   	nop
  401c82:	90                   	nop
  401c83:	90                   	nop
  401c84:	90                   	nop
  401c85:	90                   	nop
  401c86:	90                   	nop
  401c87:	90                   	nop
  401c88:	90                   	nop
  401c89:	90                   	nop
  401c8a:	90                   	nop
  401c8b:	90                   	nop
  401c8c:	90                   	nop
  401c8d:	90                   	nop
  401c8e:	90                   	nop
  401c8f:	90                   	nop
  401c90:	90                   	nop
  401c91:	90                   	nop
  401c92:	90                   	nop
  401c93:	90                   	nop
  401c94:	90                   	nop
  401c95:	90                   	nop
  401c96:	90                   	nop
  401c97:	90                   	nop
  401c98:	90                   	nop
  401c99:	90                   	nop
  401c9a:	90                   	nop
  401c9b:	90                   	nop
  401c9c:	90                   	nop
  401c9d:	90                   	nop
  401c9e:	90                   	nop
  401c9f:	90                   	nop
  401ca0:	90                   	nop
  401ca1:	90                   	nop
  401ca2:	90                   	nop
  401ca3:	90                   	nop
  401ca4:	90                   	nop
  401ca5:	90                   	nop
  401ca6:	90                   	nop
  401ca7:	90                   	nop
  401ca8:	90                   	nop
  401ca9:	90                   	nop
  401caa:	90                   	nop
  401cab:	90                   	nop
  401cac:	90                   	nop
  401cad:	90                   	nop
  401cae:	90                   	nop
  401caf:	90                   	nop
  401cb0:	90                   	nop
  401cb1:	90                   	nop
  401cb2:	90                   	nop
  401cb3:	90                   	nop
  401cb4:	90                   	nop
  401cb5:	90                   	nop
  401cb6:	90                   	nop
  401cb7:	90                   	nop
  401cb8:	90                   	nop
  401cb9:	90                   	nop
  401cba:	90                   	nop
  401cbb:	90                   	nop
  401cbc:	90                   	nop
  401cbd:	90                   	nop
  401cbe:	90                   	nop
  401cbf:	90                   	nop
  401cc0:	90                   	nop
  401cc1:	90                   	nop
  401cc2:	90                   	nop
  401cc3:	90                   	nop
  401cc4:	90                   	nop
  401cc5:	90                   	nop
  401cc6:	90                   	nop
  401cc7:	90                   	nop
  401cc8:	90                   	nop
  401cc9:	90                   	nop
  401cca:	90                   	nop
  401ccb:	90                   	nop
  401ccc:	90                   	nop
  401ccd:	90                   	nop
  401cce:	90                   	nop
  401ccf:	90                   	nop
  401cd0:	90                   	nop
  401cd1:	90                   	nop
  401cd2:	90                   	nop
  401cd3:	90                   	nop
  401cd4:	90                   	nop
  401cd5:	90                   	nop
  401cd6:	90                   	nop
  401cd7:	90                   	nop
  401cd8:	90                   	nop
  401cd9:	90                   	nop
  401cda:	90                   	nop
  401cdb:	90                   	nop
  401cdc:	90                   	nop
  401cdd:	90                   	nop
  401cde:	90                   	nop
  401cdf:	90                   	nop
  401ce0:	90                   	nop
  401ce1:	90                   	nop
  401ce2:	90                   	nop
  401ce3:	90                   	nop
  401ce4:	90                   	nop
  401ce5:	90                   	nop
  401ce6:	90                   	nop
  401ce7:	90                   	nop
  401ce8:	90                   	nop
  401ce9:	90                   	nop
  401cea:	90                   	nop
  401ceb:	90                   	nop
  401cec:	90                   	nop
  401ced:	90                   	nop
  401cee:	90                   	nop
  401cef:	90                   	nop
  401cf0:	90                   	nop
  401cf1:	90                   	nop
  401cf2:	90                   	nop
  401cf3:	90                   	nop
  401cf4:	90                   	nop
  401cf5:	90                   	nop
  401cf6:	90                   	nop
  401cf7:	90                   	nop
  401cf8:	90                   	nop
  401cf9:	90                   	nop
  401cfa:	90                   	nop
  401cfb:	90                   	nop
  401cfc:	90                   	nop
  401cfd:	90                   	nop
  401cfe:	90                   	nop
  401cff:	90                   	nop
  401d00:	90                   	nop
  401d01:	90                   	nop
  401d02:	90                   	nop
  401d03:	90                   	nop
  401d04:	90                   	nop
  401d05:	90                   	nop
  401d06:	90                   	nop
  401d07:	90                   	nop
  401d08:	90                   	nop
  401d09:	90                   	nop
  401d0a:	90                   	nop
  401d0b:	90                   	nop
  401d0c:	90                   	nop
  401d0d:	90                   	nop
  401d0e:	90                   	nop
  401d0f:	90                   	nop
  401d10:	90                   	nop
  401d11:	90                   	nop
  401d12:	90                   	nop
  401d13:	90                   	nop
  401d14:	90                   	nop
  401d15:	90                   	nop
  401d16:	90                   	nop
  401d17:	90                   	nop
  401d18:	90                   	nop
  401d19:	90                   	nop
  401d1a:	90                   	nop
  401d1b:	90                   	nop
  401d1c:	90                   	nop
  401d1d:	90                   	nop
  401d1e:	90                   	nop
  401d1f:	90                   	nop
  401d20:	90                   	nop
  401d21:	90                   	nop
  401d22:	90                   	nop
  401d23:	90                   	nop
  401d24:	90                   	nop
  401d25:	90                   	nop
  401d26:	90                   	nop
  401d27:	90                   	nop
  401d28:	90                   	nop
  401d29:	90                   	nop
  401d2a:	90                   	nop
  401d2b:	90                   	nop
  401d2c:	90                   	nop
  401d2d:	90                   	nop
  401d2e:	90                   	nop
  401d2f:	90                   	nop
  401d30:	90                   	nop
  401d31:	90                   	nop
  401d32:	90                   	nop
  401d33:	90                   	nop
  401d34:	90                   	nop
  401d35:	90                   	nop
  401d36:	90                   	nop
  401d37:	90                   	nop
  401d38:	90                   	nop
  401d39:	c3                   	retq   
  401d3a:	90                   	nop
  401d3b:	90                   	nop
  401d3c:	90                   	nop
  401d3d:	90                   	nop
  401d3e:	90                   	nop
  401d3f:	90                   	nop
  401d40:	90                   	nop
  401d41:	90                   	nop
  401d42:	90                   	nop
  401d43:	90                   	nop
  401d44:	90                   	nop
  401d45:	90                   	nop
  401d46:	90                   	nop
  401d47:	90                   	nop
  401d48:	90                   	nop
  401d49:	90                   	nop
  401d4a:	90                   	nop
  401d4b:	90                   	nop
  401d4c:	90                   	nop
  401d4d:	90                   	nop
  401d4e:	90                   	nop
  401d4f:	90                   	nop
  401d50:	90                   	nop
  401d51:	90                   	nop
  401d52:	90                   	nop
  401d53:	90                   	nop
  401d54:	90                   	nop
  401d55:	90                   	nop
  401d56:	90                   	nop
  401d57:	90                   	nop
  401d58:	90                   	nop
  401d59:	90                   	nop
  401d5a:	90                   	nop
  401d5b:	90                   	nop
  401d5c:	90                   	nop
  401d5d:	90                   	nop
  401d5e:	90                   	nop
  401d5f:	90                   	nop
  401d60:	90                   	nop
  401d61:	90                   	nop
  401d62:	90                   	nop
  401d63:	90                   	nop
  401d64:	90                   	nop
  401d65:	90                   	nop
  401d66:	90                   	nop
  401d67:	90                   	nop
  401d68:	90                   	nop
  401d69:	90                   	nop
  401d6a:	90                   	nop
  401d6b:	90                   	nop
  401d6c:	90                   	nop
  401d6d:	90                   	nop
  401d6e:	90                   	nop
  401d6f:	90                   	nop
  401d70:	90                   	nop
  401d71:	90                   	nop
  401d72:	90                   	nop
  401d73:	90                   	nop
  401d74:	90                   	nop
  401d75:	90                   	nop
  401d76:	90                   	nop
  401d77:	90                   	nop
  401d78:	90                   	nop
  401d79:	90                   	nop
  401d7a:	90                   	nop
  401d7b:	90                   	nop
  401d7c:	90                   	nop
  401d7d:	90                   	nop
  401d7e:	90                   	nop
  401d7f:	90                   	nop
  401d80:	90                   	nop
  401d81:	90                   	nop
  401d82:	90                   	nop
  401d83:	90                   	nop
  401d84:	90                   	nop
  401d85:	90                   	nop
  401d86:	90                   	nop
  401d87:	90                   	nop
  401d88:	90                   	nop
  401d89:	90                   	nop
  401d8a:	90                   	nop
  401d8b:	90                   	nop
  401d8c:	90                   	nop
  401d8d:	90                   	nop
  401d8e:	90                   	nop
  401d8f:	90                   	nop
  401d90:	90                   	nop
  401d91:	90                   	nop
  401d92:	90                   	nop
  401d93:	90                   	nop
  401d94:	90                   	nop
  401d95:	90                   	nop
  401d96:	90                   	nop
  401d97:	90                   	nop
  401d98:	90                   	nop
  401d99:	90                   	nop
  401d9a:	90                   	nop
  401d9b:	90                   	nop
  401d9c:	90                   	nop
  401d9d:	90                   	nop
  401d9e:	90                   	nop
  401d9f:	90                   	nop
  401da0:	90                   	nop
  401da1:	90                   	nop
  401da2:	90                   	nop
  401da3:	90                   	nop
  401da4:	90                   	nop
  401da5:	90                   	nop
  401da6:	90                   	nop
  401da7:	90                   	nop
  401da8:	90                   	nop
  401da9:	90                   	nop
  401daa:	90                   	nop
  401dab:	90                   	nop
  401dac:	90                   	nop
  401dad:	90                   	nop
  401dae:	90                   	nop
  401daf:	90                   	nop
  401db0:	90                   	nop
  401db1:	90                   	nop
  401db2:	90                   	nop
  401db3:	90                   	nop
  401db4:	90                   	nop
  401db5:	90                   	nop
  401db6:	90                   	nop
  401db7:	90                   	nop
  401db8:	90                   	nop
  401db9:	90                   	nop
  401dba:	90                   	nop
  401dbb:	90                   	nop
  401dbc:	90                   	nop
  401dbd:	90                   	nop
  401dbe:	90                   	nop
  401dbf:	90                   	nop
  401dc0:	90                   	nop
  401dc1:	90                   	nop
  401dc2:	90                   	nop
  401dc3:	90                   	nop
  401dc4:	90                   	nop
  401dc5:	90                   	nop
  401dc6:	90                   	nop
  401dc7:	90                   	nop
  401dc8:	90                   	nop
  401dc9:	90                   	nop
  401dca:	90                   	nop
  401dcb:	90                   	nop
  401dcc:	90                   	nop
  401dcd:	90                   	nop
  401dce:	90                   	nop
  401dcf:	90                   	nop
  401dd0:	90                   	nop
  401dd1:	90                   	nop
  401dd2:	90                   	nop
  401dd3:	90                   	nop
  401dd4:	90                   	nop
  401dd5:	90                   	nop
  401dd6:	90                   	nop
  401dd7:	90                   	nop
  401dd8:	90                   	nop
  401dd9:	90                   	nop
  401dda:	90                   	nop
  401ddb:	90                   	nop
  401ddc:	90                   	nop
  401ddd:	90                   	nop
  401dde:	90                   	nop
  401ddf:	90                   	nop
  401de0:	90                   	nop
  401de1:	90                   	nop
  401de2:	90                   	nop
  401de3:	90                   	nop
  401de4:	90                   	nop
  401de5:	90                   	nop
  401de6:	90                   	nop
  401de7:	90                   	nop
  401de8:	90                   	nop
  401de9:	90                   	nop
  401dea:	90                   	nop
  401deb:	90                   	nop
  401dec:	90                   	nop
  401ded:	90                   	nop
  401dee:	90                   	nop
  401def:	90                   	nop
  401df0:	90                   	nop
  401df1:	90                   	nop
  401df2:	90                   	nop
  401df3:	90                   	nop
  401df4:	90                   	nop
  401df5:	90                   	nop
  401df6:	90                   	nop
  401df7:	90                   	nop
  401df8:	90                   	nop
  401df9:	90                   	nop
  401dfa:	90                   	nop
  401dfb:	90                   	nop
  401dfc:	90                   	nop
  401dfd:	90                   	nop
  401dfe:	90                   	nop
  401dff:	90                   	nop
  401e00:	90                   	nop
  401e01:	90                   	nop
  401e02:	90                   	nop
  401e03:	90                   	nop
  401e04:	90                   	nop
  401e05:	90                   	nop
  401e06:	c3                   	retq   
  401e07:	90                   	nop
  401e08:	90                   	nop
  401e09:	90                   	nop
  401e0a:	90                   	nop
  401e0b:	90                   	nop
  401e0c:	90                   	nop
  401e0d:	90                   	nop
  401e0e:	90                   	nop
  401e0f:	90                   	nop
  401e10:	90                   	nop
  401e11:	90                   	nop
  401e12:	90                   	nop
  401e13:	90                   	nop
  401e14:	90                   	nop
  401e15:	90                   	nop
  401e16:	90                   	nop
  401e17:	90                   	nop
  401e18:	90                   	nop
  401e19:	90                   	nop
  401e1a:	90                   	nop
  401e1b:	90                   	nop
  401e1c:	90                   	nop
  401e1d:	90                   	nop
  401e1e:	90                   	nop
  401e1f:	90                   	nop
  401e20:	90                   	nop
  401e21:	90                   	nop
  401e22:	90                   	nop
  401e23:	90                   	nop
  401e24:	90                   	nop
  401e25:	90                   	nop
  401e26:	90                   	nop
  401e27:	90                   	nop
  401e28:	90                   	nop
  401e29:	90                   	nop
  401e2a:	90                   	nop
  401e2b:	90                   	nop
  401e2c:	90                   	nop
  401e2d:	90                   	nop
  401e2e:	90                   	nop
  401e2f:	90                   	nop
  401e30:	90                   	nop
  401e31:	90                   	nop
  401e32:	90                   	nop
  401e33:	90                   	nop
  401e34:	90                   	nop
  401e35:	90                   	nop
  401e36:	90                   	nop
  401e37:	90                   	nop
  401e38:	90                   	nop
  401e39:	90                   	nop
  401e3a:	90                   	nop
  401e3b:	90                   	nop
  401e3c:	90                   	nop
  401e3d:	90                   	nop
  401e3e:	90                   	nop
  401e3f:	90                   	nop
  401e40:	90                   	nop
  401e41:	90                   	nop
  401e42:	90                   	nop
  401e43:	90                   	nop
  401e44:	90                   	nop
  401e45:	90                   	nop
  401e46:	90                   	nop
  401e47:	90                   	nop
  401e48:	90                   	nop
  401e49:	90                   	nop
  401e4a:	90                   	nop
  401e4b:	90                   	nop
  401e4c:	90                   	nop
  401e4d:	90                   	nop
  401e4e:	90                   	nop
  401e4f:	90                   	nop
  401e50:	90                   	nop
  401e51:	90                   	nop
  401e52:	90                   	nop
  401e53:	90                   	nop
  401e54:	90                   	nop
  401e55:	90                   	nop
  401e56:	90                   	nop
  401e57:	90                   	nop
  401e58:	90                   	nop
  401e59:	90                   	nop
  401e5a:	90                   	nop
  401e5b:	90                   	nop
  401e5c:	90                   	nop
  401e5d:	90                   	nop
  401e5e:	90                   	nop
  401e5f:	90                   	nop
  401e60:	90                   	nop
  401e61:	90                   	nop
  401e62:	90                   	nop
  401e63:	90                   	nop
  401e64:	90                   	nop
  401e65:	90                   	nop
  401e66:	90                   	nop
  401e67:	90                   	nop
  401e68:	90                   	nop
  401e69:	90                   	nop
  401e6a:	90                   	nop
  401e6b:	90                   	nop
  401e6c:	90                   	nop
  401e6d:	90                   	nop
  401e6e:	90                   	nop
  401e6f:	90                   	nop
  401e70:	90                   	nop
  401e71:	90                   	nop
  401e72:	90                   	nop
  401e73:	90                   	nop
  401e74:	90                   	nop
  401e75:	90                   	nop
  401e76:	90                   	nop
  401e77:	90                   	nop
  401e78:	90                   	nop
  401e79:	90                   	nop
  401e7a:	90                   	nop
  401e7b:	90                   	nop
  401e7c:	90                   	nop
  401e7d:	90                   	nop
  401e7e:	90                   	nop
  401e7f:	90                   	nop
  401e80:	90                   	nop
  401e81:	90                   	nop
  401e82:	90                   	nop
  401e83:	90                   	nop
  401e84:	90                   	nop
  401e85:	90                   	nop
  401e86:	90                   	nop
  401e87:	90                   	nop
  401e88:	90                   	nop
  401e89:	90                   	nop
  401e8a:	90                   	nop
  401e8b:	90                   	nop
  401e8c:	90                   	nop
  401e8d:	90                   	nop
  401e8e:	90                   	nop
  401e8f:	90                   	nop
  401e90:	90                   	nop
  401e91:	90                   	nop
  401e92:	90                   	nop
  401e93:	90                   	nop
  401e94:	90                   	nop
  401e95:	90                   	nop
  401e96:	90                   	nop
  401e97:	90                   	nop
  401e98:	90                   	nop
  401e99:	90                   	nop
  401e9a:	90                   	nop
  401e9b:	90                   	nop
  401e9c:	90                   	nop
  401e9d:	90                   	nop
  401e9e:	90                   	nop
  401e9f:	90                   	nop
  401ea0:	90                   	nop
  401ea1:	90                   	nop
  401ea2:	90                   	nop
  401ea3:	90                   	nop
  401ea4:	90                   	nop
  401ea5:	90                   	nop
  401ea6:	90                   	nop
  401ea7:	90                   	nop
  401ea8:	90                   	nop
  401ea9:	90                   	nop
  401eaa:	90                   	nop
  401eab:	90                   	nop
  401eac:	90                   	nop
  401ead:	90                   	nop
  401eae:	90                   	nop
  401eaf:	90                   	nop
  401eb0:	90                   	nop
  401eb1:	90                   	nop
  401eb2:	90                   	nop
  401eb3:	90                   	nop
  401eb4:	90                   	nop
  401eb5:	90                   	nop
  401eb6:	90                   	nop
  401eb7:	90                   	nop
  401eb8:	90                   	nop
  401eb9:	90                   	nop
  401eba:	90                   	nop
  401ebb:	90                   	nop
  401ebc:	90                   	nop
  401ebd:	90                   	nop
  401ebe:	90                   	nop
  401ebf:	90                   	nop
  401ec0:	90                   	nop
  401ec1:	90                   	nop
  401ec2:	90                   	nop
  401ec3:	90                   	nop
  401ec4:	90                   	nop
  401ec5:	90                   	nop
  401ec6:	90                   	nop
  401ec7:	90                   	nop
  401ec8:	90                   	nop
  401ec9:	90                   	nop
  401eca:	90                   	nop
  401ecb:	90                   	nop
  401ecc:	90                   	nop
  401ecd:	90                   	nop
  401ece:	90                   	nop
  401ecf:	90                   	nop
  401ed0:	90                   	nop
  401ed1:	90                   	nop
  401ed2:	90                   	nop
  401ed3:	c3                   	retq   
  401ed4:	90                   	nop
  401ed5:	90                   	nop
  401ed6:	90                   	nop
  401ed7:	90                   	nop
  401ed8:	90                   	nop
  401ed9:	90                   	nop
  401eda:	90                   	nop
  401edb:	90                   	nop
  401edc:	90                   	nop
  401edd:	90                   	nop
  401ede:	90                   	nop
  401edf:	90                   	nop
  401ee0:	90                   	nop
  401ee1:	90                   	nop
  401ee2:	90                   	nop
  401ee3:	90                   	nop
  401ee4:	90                   	nop
  401ee5:	90                   	nop
  401ee6:	90                   	nop
  401ee7:	90                   	nop
  401ee8:	90                   	nop
  401ee9:	90                   	nop
  401eea:	90                   	nop
  401eeb:	90                   	nop
  401eec:	90                   	nop
  401eed:	90                   	nop
  401eee:	90                   	nop
  401eef:	90                   	nop
  401ef0:	90                   	nop
  401ef1:	90                   	nop
  401ef2:	90                   	nop
  401ef3:	90                   	nop
  401ef4:	90                   	nop
  401ef5:	90                   	nop
  401ef6:	90                   	nop
  401ef7:	90                   	nop
  401ef8:	90                   	nop
  401ef9:	90                   	nop
  401efa:	90                   	nop
  401efb:	90                   	nop
  401efc:	90                   	nop
  401efd:	90                   	nop
  401efe:	90                   	nop
  401eff:	90                   	nop
  401f00:	90                   	nop
  401f01:	90                   	nop
  401f02:	90                   	nop
  401f03:	90                   	nop
  401f04:	90                   	nop
  401f05:	90                   	nop
  401f06:	90                   	nop
  401f07:	90                   	nop
  401f08:	90                   	nop
  401f09:	90                   	nop
  401f0a:	90                   	nop
  401f0b:	90                   	nop
  401f0c:	90                   	nop
  401f0d:	90                   	nop
  401f0e:	90                   	nop
  401f0f:	90                   	nop
  401f10:	90                   	nop
  401f11:	90                   	nop
  401f12:	90                   	nop
  401f13:	90                   	nop
  401f14:	90                   	nop
  401f15:	90                   	nop
  401f16:	90                   	nop
  401f17:	90                   	nop
  401f18:	90                   	nop
  401f19:	90                   	nop
  401f1a:	90                   	nop
  401f1b:	90                   	nop
  401f1c:	90                   	nop
  401f1d:	90                   	nop
  401f1e:	90                   	nop
  401f1f:	90                   	nop
  401f20:	90                   	nop
  401f21:	90                   	nop
  401f22:	90                   	nop
  401f23:	90                   	nop
  401f24:	90                   	nop
  401f25:	90                   	nop
  401f26:	90                   	nop
  401f27:	90                   	nop
  401f28:	90                   	nop
  401f29:	90                   	nop
  401f2a:	90                   	nop
  401f2b:	90                   	nop
  401f2c:	90                   	nop
  401f2d:	90                   	nop
  401f2e:	90                   	nop
  401f2f:	90                   	nop
  401f30:	90                   	nop
  401f31:	90                   	nop
  401f32:	90                   	nop
  401f33:	90                   	nop
  401f34:	90                   	nop
  401f35:	90                   	nop
  401f36:	90                   	nop
  401f37:	90                   	nop
  401f38:	90                   	nop
  401f39:	90                   	nop
  401f3a:	90                   	nop
  401f3b:	90                   	nop
  401f3c:	90                   	nop
  401f3d:	90                   	nop
  401f3e:	90                   	nop
  401f3f:	90                   	nop
  401f40:	90                   	nop
  401f41:	90                   	nop
  401f42:	90                   	nop
  401f43:	90                   	nop
  401f44:	90                   	nop
  401f45:	90                   	nop
  401f46:	90                   	nop
  401f47:	90                   	nop
  401f48:	90                   	nop
  401f49:	90                   	nop
  401f4a:	90                   	nop
  401f4b:	90                   	nop
  401f4c:	90                   	nop
  401f4d:	90                   	nop
  401f4e:	90                   	nop
  401f4f:	90                   	nop
  401f50:	90                   	nop
  401f51:	90                   	nop
  401f52:	90                   	nop
  401f53:	90                   	nop
  401f54:	90                   	nop
  401f55:	90                   	nop
  401f56:	90                   	nop
  401f57:	90                   	nop
  401f58:	90                   	nop
  401f59:	90                   	nop
  401f5a:	90                   	nop
  401f5b:	90                   	nop
  401f5c:	90                   	nop
  401f5d:	90                   	nop
  401f5e:	90                   	nop
  401f5f:	90                   	nop
  401f60:	90                   	nop
  401f61:	90                   	nop
  401f62:	90                   	nop
  401f63:	90                   	nop
  401f64:	90                   	nop
  401f65:	90                   	nop
  401f66:	90                   	nop
  401f67:	90                   	nop
  401f68:	90                   	nop
  401f69:	90                   	nop
  401f6a:	90                   	nop
  401f6b:	90                   	nop
  401f6c:	90                   	nop
  401f6d:	90                   	nop
  401f6e:	90                   	nop
  401f6f:	90                   	nop
  401f70:	90                   	nop
  401f71:	90                   	nop
  401f72:	90                   	nop
  401f73:	90                   	nop
  401f74:	90                   	nop
  401f75:	90                   	nop
  401f76:	90                   	nop
  401f77:	90                   	nop
  401f78:	90                   	nop
  401f79:	90                   	nop
  401f7a:	90                   	nop
  401f7b:	90                   	nop
  401f7c:	90                   	nop
  401f7d:	90                   	nop
  401f7e:	90                   	nop
  401f7f:	90                   	nop
  401f80:	90                   	nop
  401f81:	90                   	nop
  401f82:	90                   	nop
  401f83:	90                   	nop
  401f84:	90                   	nop
  401f85:	90                   	nop
  401f86:	90                   	nop
  401f87:	90                   	nop
  401f88:	90                   	nop
  401f89:	90                   	nop
  401f8a:	90                   	nop
  401f8b:	90                   	nop
  401f8c:	90                   	nop
  401f8d:	90                   	nop
  401f8e:	90                   	nop
  401f8f:	90                   	nop
  401f90:	90                   	nop
  401f91:	90                   	nop
  401f92:	90                   	nop
  401f93:	90                   	nop
  401f94:	90                   	nop
  401f95:	90                   	nop
  401f96:	90                   	nop
  401f97:	90                   	nop
  401f98:	90                   	nop
  401f99:	90                   	nop
  401f9a:	90                   	nop
  401f9b:	90                   	nop
  401f9c:	90                   	nop
  401f9d:	90                   	nop
  401f9e:	90                   	nop
  401f9f:	90                   	nop
  401fa0:	48 8d 05 f9 ff ff ff 	lea    -0x7(%rip),%rax        # 0x401fa0
  401fa7:	c6 00 c3             	movb   $0xc3,(%rax)
  401faa:	49 ff c7             	inc    %r15
  401fad:	8a 07                	mov    (%rdi),%al
  401faf:	48 ff c7             	inc    %rdi
  401fb2:	3c 0a                	cmp    $0xa,%al
  401fb4:	0f 84 b2 00 00 00    	je     0x40206c
  401fba:	2c 30                	sub    $0x30,%al
  401fbc:	3c 01                	cmp    $0x1,%al
  401fbe:	75 0e                	jne    0x401fce
  401fc0:	48 c7 c3 fe ff ff ff 	mov    $0xfffffffffffffffe,%rbx
  401fc7:	b9 01 00 00 00       	mov    $0x1,%ecx
  401fcc:	eb 7e                	jmp    0x40204c
  401fce:	3c 02                	cmp    $0x2,%al
  401fd0:	75 0e                	jne    0x401fe0
  401fd2:	48 c7 c3 ff ff ff ff 	mov    $0xffffffffffffffff,%rbx
  401fd9:	b9 02 00 00 00       	mov    $0x2,%ecx
  401fde:	eb 6c                	jmp    0x40204c
  401fe0:	3c 03                	cmp    $0x3,%al
  401fe2:	75 0c                	jne    0x401ff0
  401fe4:	bb 01 00 00 00       	mov    $0x1,%ebx
  401fe9:	b9 02 00 00 00       	mov    $0x2,%ecx
  401fee:	eb 5c                	jmp    0x40204c
  401ff0:	3c 04                	cmp    $0x4,%al
  401ff2:	75 0c                	jne    0x402000
  401ff4:	bb 02 00 00 00       	mov    $0x2,%ebx
  401ff9:	b9 01 00 00 00       	mov    $0x1,%ecx
  401ffe:	eb 4c                	jmp    0x40204c
  402000:	3c 05                	cmp    $0x5,%al
  402002:	75 0e                	jne    0x402012
  402004:	bb 02 00 00 00       	mov    $0x2,%ebx
  402009:	48 c7 c1 ff ff ff ff 	mov    $0xffffffffffffffff,%rcx
  402010:	eb 3a                	jmp    0x40204c
  402012:	3c 06                	cmp    $0x6,%al
  402014:	75 0e                	jne    0x402024
  402016:	bb 01 00 00 00       	mov    $0x1,%ebx
  40201b:	48 c7 c1 fe ff ff ff 	mov    $0xfffffffffffffffe,%rcx
  402022:	eb 28                	jmp    0x40204c
  402024:	3c 07                	cmp    $0x7,%al
  402026:	75 10                	jne    0x402038
  402028:	48 c7 c3 ff ff ff ff 	mov    $0xffffffffffffffff,%rbx
  40202f:	48 c7 c1 fe ff ff ff 	mov    $0xfffffffffffffffe,%rcx
  402036:	eb 14                	jmp    0x40204c
  402038:	3c 08                	cmp    $0x8,%al
  40203a:	75 30                	jne    0x40206c
  40203c:	48 c7 c3 fe ff ff ff 	mov    $0xfffffffffffffffe,%rbx
  402043:	48 c7 c1 ff ff ff ff 	mov    $0xffffffffffffffff,%rcx
  40204a:	eb 00                	jmp    0x40204c
  40204c:	48 6b db 0c          	imul   $0xc,%rbx,%rbx
  402050:	48 01 cb             	add    %rcx,%rbx
  402053:	48 69 db cd 00 00 00 	imul   $0xcd,%rbx,%rbx
  40205a:	48 8d 05 f9 ff ff ff 	lea    -0x7(%rip),%rax        # 0x40205a
  402061:	48 2d ba 00 00 00    	sub    $0xba,%rax
  402067:	48 01 d8             	add    %rbx,%rax
  40206a:	ff e0                	jmpq   *%rax
  40206c:	c3                   	retq   
  40206d:	48 8d 05 f9 ff ff ff 	lea    -0x7(%rip),%rax        # 0x40206d
  402074:	c6 00 c3             	movb   $0xc3,(%rax)
  402077:	49 ff c7             	inc    %r15
  40207a:	8a 07                	mov    (%rdi),%al
  40207c:	48 ff c7             	inc    %rdi
  40207f:	3c 0a                	cmp    $0xa,%al
  402081:	0f 84 b2 00 00 00    	je     0x402139
  402087:	2c 30                	sub    $0x30,%al
  402089:	3c 01                	cmp    $0x1,%al
  40208b:	75 0e                	jne    0x40209b
  40208d:	48 c7 c3 fe ff ff ff 	mov    $0xfffffffffffffffe,%rbx
  402094:	b9 01 00 00 00       	mov    $0x1,%ecx
  402099:	eb 7e                	jmp    0x402119
